(dp0
S'result'
p1
(dp2
(cnumpy.core.multiarray
scalar
p3
(cnumpy
dtype
p4
(S'i4'
p5
I0
I1
tp6
Rp7
(I3
S'<'
p8
NNNI-1
I-1
I0
tp9
bS'7\x00\x00\x00'
p10
tp11
Rp12
g3
(g7
S'\x05\x00\x00\x00'
p13
tp14
Rp15
tp16
(cnumpy.core.multiarray
_reconstruct
p17
(cnumpy
ndarray
p18
(I0
tp19
S'b'
p20
tp21
Rp22
(I1
(I1
tp23
g4
(S'f4'
p24
I0
I1
tp25
Rp26
(I3
S'<'
p27
NNNI-1
I-1
I0
tp28
bI00
S'\x81\xfb\x7f?'
p29
tp30
b(lp31
S'others'
p32
atp33
s(g3
(g7
S'\x14\x00\x00\x00'
p34
tp35
Rp36
g3
(g7
S'\x19\x00\x00\x00'
p37
tp38
Rp39
tp40
(g17
(g18
(I0
tp41
g20
tp42
Rp43
(I1
(I1
tp44
g26
I00
S'\xc8\xfe\x7f?'
p45
tp46
b(lp47
g32
atp48
s(g3
(g7
S'\xcd\x00\x00\x00'
p49
tp50
Rp51
g3
(g7
S'#\x00\x00\x00'
p52
tp53
Rp54
tp55
(g17
(g18
(I0
tp56
g20
tp57
Rp58
(I1
(I1
tp59
g26
I00
S'\xba\xff\x7f?'
p60
tp61
b(lp62
g32
atp63
s(g3
(g7
S'Z\x00\x00\x00'
p64
tp65
Rp66
g3
(g7
S'\x00\x00\x00\x00'
p67
tp68
Rp69
tp70
(g17
(g18
(I0
tp71
g20
tp72
Rp73
(I1
(I1
tp74
g26
I00
S'\xc4\xfa\x7f?'
p75
tp76
b(lp77
g32
atp78
s(g3
(g7
S'x\x00\x00\x00'
p79
tp80
Rp81
g3
(g7
S'P\x00\x00\x00'
p82
tp83
Rp84
tp85
(g17
(g18
(I0
tp86
g20
tp87
Rp88
(I1
(I1
tp89
g26
I00
S'\x1fP\x7f?'
p90
tp91
b(lp92
g32
atp93
s(g3
(g7
S'\xd7\x00\x00\x00'
p94
tp95
Rp96
g3
(g7
S'7\x00\x00\x00'
p97
tp98
Rp99
tp100
(g17
(g18
(I0
tp101
g20
tp102
Rp103
(I1
(I1
tp104
g26
I00
S'\xba\xf8\x7f?'
p105
tp106
b(lp107
g32
atp108
s(g3
(g7
S'A\x00\x00\x00'
p109
tp110
Rp111
g3
(g7
S'2\x00\x00\x00'
p112
tp113
Rp114
tp115
(g17
(g18
(I0
tp116
g20
tp117
Rp118
(I1
(I1
tp119
g26
I00
S'\xf4_|?'
p120
tp121
b(lp122
g32
atp123
s(g12
g3
(g7
S'#\x00\x00\x00'
p124
tp125
Rp126
tp127
(g17
(g18
(I0
tp128
g20
tp129
Rp130
(I1
(I1
tp131
g26
I00
S'+\xbd\x0b?'
p132
tp133
b(lp134
S'car'
p135
atp136
s(g3
(g7
S'\x87\x00\x00\x00'
p137
tp138
Rp139
g3
(g7
S'2\x00\x00\x00'
p140
tp141
Rp142
tp143
(g17
(g18
(I0
tp144
g20
tp145
Rp146
(I1
(I1
tp147
g26
I00
S'E\xcb\x02?'
p148
tp149
b(lp150
g32
atp151
s(g3
(g7
S'(\x00\x00\x00'
p152
tp153
Rp154
g3
(g7
S'<\x00\x00\x00'
p155
tp156
Rp157
tp158
(g17
(g18
(I0
tp159
g20
tp160
Rp161
(I1
(I1
tp162
g26
I00
S'-\xf4\x7f?'
p163
tp164
b(lp165
g32
atp166
s(g3
(g7
S'\xe6\x00\x00\x00'
p167
tp168
Rp169
g3
(g7
S'\x0f\x00\x00\x00'
p170
tp171
Rp172
tp173
(g17
(g18
(I0
tp174
g20
tp175
Rp176
(I1
(I1
tp177
g26
I00
S'\xfe\xff\x7f?'
p178
tp179
b(lp180
g135
atp181
s(g3
(g7
S'_\x00\x00\x00'
p182
tp183
Rp184
g3
(g7
S'\x1e\x00\x00\x00'
p185
tp186
Rp187
tp188
(g17
(g18
(I0
tp189
g20
tp190
Rp191
(I1
(I1
tp192
g26
I00
S'eS\x03?'
p193
tp194
b(lp195
g32
atp196
s(g3
(g7
S'\xa0\x00\x00\x00'
p197
tp198
Rp199
g3
(g7
S'7\x00\x00\x00'
p200
tp201
Rp202
tp203
(g17
(g18
(I0
tp204
g20
tp205
Rp206
(I1
(I1
tp207
g26
I00
S'd\xff\x7f?'
p208
tp209
b(lp210
g32
atp211
s(g3
(g7
S'U\x00\x00\x00'
p212
tp213
Rp214
g3
(g7
S'\x19\x00\x00\x00'
p215
tp216
Rp217
tp218
(g17
(g18
(I0
tp219
g20
tp220
Rp221
(I1
(I1
tp222
g26
I00
S'\x12GW?'
p223
tp224
b(lp225
g135
atp226
s(g3
(g7
S'\xbe\x00\x00\x00'
p227
tp228
Rp229
g3
(g7
S'A\x00\x00\x00'
p230
tp231
Rp232
tp233
(g17
(g18
(I0
tp234
g20
tp235
Rp236
(I1
(I1
tp237
g26
I00
S'\xad\xf2\x7f?'
p238
tp239
b(lp240
g32
atp241
s(g12
g3
(g7
S'P\x00\x00\x00'
p242
tp243
Rp244
tp245
(g17
(g18
(I0
tp246
g20
tp247
Rp248
(I1
(I1
tp249
g26
I00
S'\xfe\xff\x7f?'
p250
tp251
b(lp252
g32
atp253
s(g3
(g7
S'i\x00\x00\x00'
p254
tp255
Rp256
g3
(g7
S'\x14\x00\x00\x00'
p257
tp258
Rp259
tp260
(g17
(g18
(I0
tp261
g20
tp262
Rp263
(I1
(I1
tp264
g26
I00
S'\xcc\xff\x7f?'
p265
tp266
b(lp267
g32
atp268
s(g3
(g7
S'-\x00\x00\x00'
p269
tp270
Rp271
g3
(g7
S'#\x00\x00\x00'
p272
tp273
Rp274
tp275
(g17
(g18
(I0
tp276
g20
tp277
Rp278
(I1
(I1
tp279
g26
I00
S'\x1b\xee\x00?'
p280
tp281
b(lp282
g135
atp283
s(g96
g3
(g7
S'K\x00\x00\x00'
p284
tp285
Rp286
tp287
(g17
(g18
(I0
tp288
g20
tp289
Rp290
(I1
(I1
tp291
g26
I00
S'O\xfa\x7f?'
p292
tp293
b(lp294
g32
atp295
s(g3
(g7
S'\x0f\x00\x00\x00'
p296
tp297
Rp298
g3
(g7
S'\x1e\x00\x00\x00'
p299
tp300
Rp301
tp302
(g17
(g18
(I0
tp303
g20
tp304
Rp305
(I1
(I1
tp306
g26
I00
S' \xd0\x7f?'
p307
tp308
b(lp309
g32
atp310
s(g199
g3
(g7
S'-\x00\x00\x00'
p311
tp312
Rp313
tp314
(g17
(g18
(I0
tp315
g20
tp316
Rp317
(I1
(I1
tp318
g26
I00
S'\xe4\xdd\x7f?'
p319
tp320
b(lp321
g32
atp322
s(g36
g3
(g7
S'K\x00\x00\x00'
p323
tp324
Rp325
tp326
(g17
(g18
(I0
tp327
g20
tp328
Rp329
(I1
(I1
tp330
g26
I00
S'\xfe\xff\x7f?'
p331
tp332
b(lp333
g32
atp334
s(g3
(g7
S'd\x00\x00\x00'
p335
tp336
Rp337
g3
(g7
S'-\x00\x00\x00'
p338
tp339
Rp340
tp341
(g17
(g18
(I0
tp342
g20
tp343
Rp344
(I1
(I1
tp345
g26
I00
S'\xc1\xf6\x7f?'
p346
tp347
b(lp348
g32
atp349
s(g3
(g7
S'\xdc\x00\x00\x00'
p350
tp351
Rp352
g3
(g7
S'\x0f\x00\x00\x00'
p353
tp354
Rp355
tp356
(g17
(g18
(I0
tp357
g20
tp358
Rp359
(I1
(I1
tp360
g26
I00
S'\x00\x00\x80?'
p361
tp362
b(lp363
g135
atp364
s(g184
g3
(g7
S'7\x00\x00\x00'
p365
tp366
Rp367
tp368
(g17
(g18
(I0
tp369
g20
tp370
Rp371
(I1
(I1
tp372
g26
I00
S'\xdd\xfb\x7f?'
p373
tp374
b(lp375
g32
atp376
s(g3
(g7
S'\x19\x00\x00\x00'
p377
tp378
Rp379
g3
(g7
S'\x0f\x00\x00\x00'
p380
tp381
Rp382
tp383
(g17
(g18
(I0
tp384
g20
tp385
Rp386
(I1
(I1
tp387
g26
I00
S'\x9e\xff\x7f?'
p388
tp389
b(lp390
g32
atp391
s(g3
(g7
S'\x91\x00\x00\x00'
p392
tp393
Rp394
g3
(g7
S'-\x00\x00\x00'
p395
tp396
Rp397
tp398
(g17
(g18
(I0
tp399
g20
tp400
Rp401
(I1
(I1
tp402
g26
I00
S'\xa8\x91\x01?'
p403
tp404
b(lp405
g32
atp406
s(g3
(g7
S'\x96\x00\x00\x00'
p407
tp408
Rp409
g3
(g7
S'\n\x00\x00\x00'
p410
tp411
Rp412
tp413
(g17
(g18
(I0
tp414
g20
tp415
Rp416
(I1
(I1
tp417
g26
I00
S'\xab\xfa\x7f?'
p418
tp419
b(lp420
g32
atp421
s(g3
(g7
S'\x00\x00\x00\x00'
p422
tp423
Rp424
g3
(g7
S'7\x00\x00\x00'
p425
tp426
Rp427
tp428
(g17
(g18
(I0
tp429
g20
tp430
Rp431
(I1
(I1
tp432
g26
I00
S'\x9c\xeb\x7f?'
p433
tp434
b(lp435
g32
atp436
s(g51
g3
(g7
S'K\x00\x00\x00'
p437
tp438
Rp439
tp440
(g17
(g18
(I0
tp441
g20
tp442
Rp443
(I1
(I1
tp444
g26
I00
S'`\x9d\x7f?'
p445
tp446
b(lp447
g32
atp448
s(g96
g3
(g7
S'2\x00\x00\x00'
p449
tp450
Rp451
tp452
(g17
(g18
(I0
tp453
g20
tp454
Rp455
(I1
(I1
tp456
g26
I00
S'\x14\xfc\x7f?'
p457
tp458
b(lp459
g32
atp460
s(g3
(g7
S'\xc8\x00\x00\x00'
p461
tp462
Rp463
g3
(g7
S'#\x00\x00\x00'
p464
tp465
Rp466
tp467
(g17
(g18
(I0
tp468
g20
tp469
Rp470
(I1
(I1
tp471
g26
I00
S'\xdf\xfe\x7f?'
p472
tp473
b(lp474
g32
atp475
s(g3
(g7
S'\n\x00\x00\x00'
p476
tp477
Rp478
g3
(g7
S'K\x00\x00\x00'
p479
tp480
Rp481
tp482
(g17
(g18
(I0
tp483
g20
tp484
Rp485
(I1
(I1
tp486
g26
I00
S'\xf9\xff\x7f?'
p487
tp488
b(lp489
g32
atp490
s(g3
(g7
S'\xd2\x00\x00\x00'
p491
tp492
Rp493
g3
(g7
S'\x0f\x00\x00\x00'
p494
tp495
Rp496
tp497
(g17
(g18
(I0
tp498
g20
tp499
Rp500
(I1
(I1
tp501
g26
I00
S'g\xff\x7f?'
p502
tp503
b(lp504
g135
atp505
s(g3
(g7
S'\xe1\x00\x00\x00'
p506
tp507
Rp508
g3
(g7
S'-\x00\x00\x00'
p509
tp510
Rp511
tp512
(g17
(g18
(I0
tp513
g20
tp514
Rp515
(I1
(I1
tp516
g26
I00
S'\xe7\xfe\x7f?'
p517
tp518
b(lp519
g32
atp520
s(g3
(g7
S'#\x00\x00\x00'
p521
tp522
Rp523
g3
(g7
S'A\x00\x00\x00'
p524
tp525
Rp526
tp527
(g17
(g18
(I0
tp528
g20
tp529
Rp530
(I1
(I1
tp531
g26
I00
S'\xfc\xff\x7f?'
p532
tp533
b(lp534
g32
atp535
s(g424
g3
(g7
S'-\x00\x00\x00'
p536
tp537
Rp538
tp539
(g17
(g18
(I0
tp540
g20
tp541
Rp542
(I1
(I1
tp543
g26
I00
S'FL|?'
p544
tp545
b(lp546
g32
atp547
s(g478
g3
(g7
S'U\x00\x00\x00'
p548
tp549
Rp550
tp551
(g17
(g18
(I0
tp552
g20
tp553
Rp554
(I1
(I1
tp555
g26
I00
S'\xfe\xff\x7f?'
p556
tp557
b(lp558
g32
atp559
s(g3
(g7
S'}\x00\x00\x00'
p560
tp561
Rp562
g3
(g7
S'\x19\x00\x00\x00'
p563
tp564
Rp565
tp566
(g17
(g18
(I0
tp567
g20
tp568
Rp569
(I1
(I1
tp570
g26
I00
S'u$|?'
p571
tp572
b(lp573
g32
atp574
s(g3
(g7
S'\x9b\x00\x00\x00'
p575
tp576
Rp577
g3
(g7
S'\x00\x00\x00\x00'
p578
tp579
Rp580
tp581
(g17
(g18
(I0
tp582
g20
tp583
Rp584
(I1
(I1
tp585
g26
I00
S'\x18\xf3\x7f?'
p586
tp587
b(lp588
g32
atp589
s(g154
g3
(g7
S'#\x00\x00\x00'
p590
tp591
Rp592
tp593
(g17
(g18
(I0
tp594
g20
tp595
Rp596
(I1
(I1
tp597
g26
I00
S'\xfald?'
p598
tp599
b(lp600
g32
atp601
s(g3
(g7
S'\x82\x00\x00\x00'
p602
tp603
Rp604
g3
(g7
S'2\x00\x00\x00'
p605
tp606
Rp607
tp608
(g17
(g18
(I0
tp609
g20
tp610
Rp611
(I1
(I1
tp612
g26
I00
S']TQ?'
p613
tp614
b(lp615
g135
atp616
s(g111
g3
(g7
S'-\x00\x00\x00'
p617
tp618
Rp619
tp620
(g17
(g18
(I0
tp621
g20
tp622
Rp623
(I1
(I1
tp624
g26
I00
S'\xb5\x07\x05?'
p625
tp626
b(lp627
g32
atp628
s(g3
(g7
S'F\x00\x00\x00'
p629
tp630
Rp631
g3
(g7
S'\n\x00\x00\x00'
p632
tp633
Rp634
tp635
(g17
(g18
(I0
tp636
g20
tp637
Rp638
(I1
(I1
tp639
g26
I00
S'&\xf3\x7f?'
p640
tp641
b(lp642
g32
atp643
s(g508
g3
(g7
S'#\x00\x00\x00'
p644
tp645
Rp646
tp647
(g17
(g18
(I0
tp648
g20
tp649
Rp650
(I1
(I1
tp651
g26
I00
S',\xae\x7f?'
p652
tp653
b(lp654
g32
atp655
s(g3
(g7
S'\x8c\x00\x00\x00'
p656
tp657
Rp658
g3
(g7
S'F\x00\x00\x00'
p659
tp660
Rp661
tp662
(g17
(g18
(I0
tp663
g20
tp664
Rp665
(I1
(I1
tp666
g26
I00
S'\x1c\xfb\x7f?'
p667
tp668
b(lp669
g32
atp670
s(g562
g3
(g7
S'K\x00\x00\x00'
p671
tp672
Rp673
tp674
(g17
(g18
(I0
tp675
g20
tp676
Rp677
(I1
(I1
tp678
g26
I00
S'@\xd0z?'
p679
tp680
b(lp681
g32
atp682
s(g81
g3
(g7
S'#\x00\x00\x00'
p683
tp684
Rp685
tp686
(g17
(g18
(I0
tp687
g20
tp688
Rp689
(I1
(I1
tp690
g26
I00
S'\xe6\rm?'
p691
tp692
b(lp693
g135
atp694
s(g3
(g7
S'<\x00\x00\x00'
p695
tp696
Rp697
g3
(g7
S'\x14\x00\x00\x00'
p698
tp699
Rp700
tp701
(g17
(g18
(I0
tp702
g20
tp703
Rp704
(I1
(I1
tp705
g26
I00
S'p\xee\x19?'
p706
tp707
b(lp708
g32
atp709
s(g3
(g7
S'P\x00\x00\x00'
p710
tp711
Rp712
g3
(g7
S'\x19\x00\x00\x00'
p713
tp714
Rp715
tp716
(g17
(g18
(I0
tp717
g20
tp718
Rp719
(I1
(I1
tp720
g26
I00
S'\xcf9`?'
p721
tp722
b(lp723
g135
atp724
s(g3
(g7
S'n\x00\x00\x00'
p725
tp726
Rp727
g3
(g7
S'7\x00\x00\x00'
p728
tp729
Rp730
tp731
(g17
(g18
(I0
tp732
g20
tp733
Rp734
(I1
(I1
tp735
g26
I00
S'\xb2\x9a\x7f?'
p736
tp737
b(lp738
g32
atp739
s(g184
g3
(g7
S'<\x00\x00\x00'
p740
tp741
Rp742
tp743
(g17
(g18
(I0
tp744
g20
tp745
Rp746
(I1
(I1
tp747
g26
I00
S'\xec\xff\x7f?'
p748
tp749
b(lp750
g32
atp751
s(g562
g3
(g7
S'<\x00\x00\x00'
p752
tp753
Rp754
tp755
(g17
(g18
(I0
tp756
g20
tp757
Rp758
(I1
(I1
tp759
g26
I00
S'i\x98j?'
p760
tp761
b(lp762
g32
atp763
s(g604
g3
(g7
S'F\x00\x00\x00'
p764
tp765
Rp766
tp767
(g17
(g18
(I0
tp768
g20
tp769
Rp770
(I1
(I1
tp771
g26
I00
S'4\xdc\x7f?'
p772
tp773
b(lp774
g32
atp775
s(g337
g3
(g7
S'2\x00\x00\x00'
p776
tp777
Rp778
tp779
(g17
(g18
(I0
tp780
g20
tp781
Rp782
(I1
(I1
tp783
g26
I00
S'\x17\xfd\x7f?'
p784
tp785
b(lp786
g32
atp787
s(g352
g3
(g7
S'<\x00\x00\x00'
p788
tp789
Rp790
tp791
(g17
(g18
(I0
tp792
g20
tp793
Rp794
(I1
(I1
tp795
g26
I00
S'f\xfd\x7f?'
p796
tp797
b(lp798
g32
atp799
s(g3
(g7
S'K\x00\x00\x00'
p800
tp801
Rp802
g3
(g7
S'\x00\x00\x00\x00'
p803
tp804
Rp805
tp806
(g17
(g18
(I0
tp807
g20
tp808
Rp809
(I1
(I1
tp810
g26
I00
S'v\xfd\x7f?'
p811
tp812
b(lp813
g32
atp814
s(g3
(g7
S'\xc3\x00\x00\x00'
p815
tp816
Rp817
g3
(g7
S'2\x00\x00\x00'
p818
tp819
Rp820
tp821
(g17
(g18
(I0
tp822
g20
tp823
Rp824
(I1
(I1
tp825
g26
I00
S'\x9e\xfe\x7f?'
p826
tp827
b(lp828
g32
atp829
s(g712
g3
(g7
S'U\x00\x00\x00'
p830
tp831
Rp832
tp833
(g17
(g18
(I0
tp834
g20
tp835
Rp836
(I1
(I1
tp837
g26
I00
S'\x81\xfc\x7f?'
p838
tp839
b(lp840
g32
atp841
s(g409
g3
(g7
S'\x05\x00\x00\x00'
p842
tp843
Rp844
tp845
(g17
(g18
(I0
tp846
g20
tp847
Rp848
(I1
(I1
tp849
g26
I00
S't\xf5\x7f?'
p850
tp851
b(lp852
g32
atp853
s(g214
g3
(g7
S'P\x00\x00\x00'
p854
tp855
Rp856
tp857
(g17
(g18
(I0
tp858
g20
tp859
Rp860
(I1
(I1
tp861
g26
I00
S'\xa9pa?'
p862
tp863
b(lp864
g32
atp865
s(g817
g3
(g7
S'\x14\x00\x00\x00'
p866
tp867
Rp868
tp869
(g17
(g18
(I0
tp870
g20
tp871
Rp872
(I1
(I1
tp873
g26
I00
S"'};?"
p874
tp875
b(lp876
g32
atp877
s(g697
g3
(g7
S'F\x00\x00\x00'
p878
tp879
Rp880
tp881
(g17
(g18
(I0
tp882
g20
tp883
Rp884
(I1
(I1
tp885
g26
I00
S'\xff\xff\x7f?'
p886
tp887
b(lp888
g32
atp889
s(g96
g3
(g7
S'\x05\x00\x00\x00'
p890
tp891
Rp892
tp893
(g17
(g18
(I0
tp894
g20
tp895
Rp896
(I1
(I1
tp897
g26
I00
S'\x1b\xdbv?'
p898
tp899
b(lp900
g32
atp901
s(g3
(g7
S'\xb4\x00\x00\x00'
p902
tp903
Rp904
g3
(g7
S'\x19\x00\x00\x00'
p905
tp906
Rp907
tp908
(g17
(g18
(I0
tp909
g20
tp910
Rp911
(I1
(I1
tp912
g26
I00
S'@\xe6\x7f?'
p913
tp914
b(lp915
g32
atp916
s(g51
g3
(g7
S'\n\x00\x00\x00'
p917
tp918
Rp919
tp920
(g17
(g18
(I0
tp921
g20
tp922
Rp923
(I1
(I1
tp924
g26
I00
S'\xdc\xf7y?'
p925
tp926
b(lp927
g32
atp928
s(g577
g3
(g7
S'\x19\x00\x00\x00'
p929
tp930
Rp931
tp932
(g17
(g18
(I0
tp933
g20
tp934
Rp935
(I1
(I1
tp936
g26
I00
S'\xc0\xfb\x7f?'
p937
tp938
b(lp939
g32
atp940
s(g379
g3
(g7
S'F\x00\x00\x00'
p941
tp942
Rp943
tp944
(g17
(g18
(I0
tp945
g20
tp946
Rp947
(I1
(I1
tp948
g26
I00
S'\xfe\xff\x7f?'
p949
tp950
b(lp951
g32
atp952
s(g66
g3
(g7
S'<\x00\x00\x00'
p953
tp954
Rp955
tp956
(g17
(g18
(I0
tp957
g20
tp958
Rp959
(I1
(I1
tp960
g26
I00
S'\xa9\xff\x7f?'
p961
tp962
b(lp963
g32
atp964
s(g298
g3
(g7
S'F\x00\x00\x00'
p965
tp966
Rp967
tp968
(g17
(g18
(I0
tp969
g20
tp970
Rp971
(I1
(I1
tp972
g26
I00
S'\xf8\xff\x7f?'
p973
tp974
b(lp975
g32
atp976
s(g3
(g7
S'2\x00\x00\x00'
p977
tp978
Rp979
g3
(g7
S'F\x00\x00\x00'
p980
tp981
Rp982
tp983
(g17
(g18
(I0
tp984
g20
tp985
Rp986
(I1
(I1
tp987
g26
I00
S'\xfe\xff\x7f?'
p988
tp989
b(lp990
g32
atp991
s(g904
g3
(g7
S'-\x00\x00\x00'
p992
tp993
Rp994
tp995
(g17
(g18
(I0
tp996
g20
tp997
Rp998
(I1
(I1
tp999
g26
I00
S'\xd9\xff\x7f?'
p1000
tp1001
b(lp1002
g32
atp1003
s(g394
g3
(g7
S'\x05\x00\x00\x00'
p1004
tp1005
Rp1006
tp1007
(g17
(g18
(I0
tp1008
g20
tp1009
Rp1010
(I1
(I1
tp1011
g26
I00
S'\xfa\xd9\x7f?'
p1012
tp1013
b(lp1014
g32
atp1015
s(g463
g3
(g7
S'\x00\x00\x00\x00'
p1016
tp1017
Rp1018
tp1019
(g17
(g18
(I0
tp1020
g20
tp1021
Rp1022
(I1
(I1
tp1023
g26
I00
S's\xff\x7f?'
p1024
tp1025
b(lp1026
g32
atp1027
s(g229
g3
(g7
S'U\x00\x00\x00'
p1028
tp1029
Rp1030
tp1031
(g17
(g18
(I0
tp1032
g20
tp1033
Rp1034
(I1
(I1
tp1035
g26
I00
S'\xec\xb8\x7f?'
p1036
tp1037
b(lp1038
g32
atp1039
s(g523
g3
(g7
S'\x0f\x00\x00\x00'
p1040
tp1041
Rp1042
tp1043
(g17
(g18
(I0
tp1044
g20
tp1045
Rp1046
(I1
(I1
tp1047
g26
I00
S'\x07\xf5\x7f?'
p1048
tp1049
b(lp1050
g32
atp1051
s(g3
(g7
S'\x05\x00\x00\x00'
p1052
tp1053
Rp1054
g3
(g7
S'F\x00\x00\x00'
p1055
tp1056
Rp1057
tp1058
(g17
(g18
(I0
tp1059
g20
tp1060
Rp1061
(I1
(I1
tp1062
g26
I00
S'\xfb\xff\x7f?'
p1063
tp1064
b(lp1065
g32
atp1066
s(g256
g3
(g7
S'(\x00\x00\x00'
p1067
tp1068
Rp1069
tp1070
(g17
(g18
(I0
tp1071
g20
tp1072
Rp1073
(I1
(I1
tp1074
g26
I00
S'\xba\xca\x7f?'
p1075
tp1076
b(lp1077
g32
atp1078
s(g379
g3
(g7
S'\x19\x00\x00\x00'
p1079
tp1080
Rp1081
tp1082
(g17
(g18
(I0
tp1083
g20
tp1084
Rp1085
(I1
(I1
tp1086
g26
I00
S'\xc5\xfa\x7f?'
p1087
tp1088
b(lp1089
g32
atp1090
s(g298
g3
(g7
S'\n\x00\x00\x00'
p1091
tp1092
Rp1093
tp1094
(g17
(g18
(I0
tp1095
g20
tp1096
Rp1097
(I1
(I1
tp1098
g26
I00
S'\x8a\xfc\x7f?'
p1099
tp1100
b(lp1101
g32
atp1102
s(g904
g3
(g7
S'\x1e\x00\x00\x00'
p1103
tp1104
Rp1105
tp1106
(g17
(g18
(I0
tp1107
g20
tp1108
Rp1109
(I1
(I1
tp1110
g26
I00
S'\x97\xff\x7f?'
p1111
tp1112
b(lp1113
g32
atp1114
s(g424
g3
(g7
S'\x05\x00\x00\x00'
p1115
tp1116
Rp1117
tp1118
(g17
(g18
(I0
tp1119
g20
tp1120
Rp1121
(I1
(I1
tp1122
g26
I00
S'@\xff\x7f?'
p1123
tp1124
b(lp1125
g32
atp1126
s(g577
g3
(g7
S'K\x00\x00\x00'
p1127
tp1128
Rp1129
tp1130
(g17
(g18
(I0
tp1131
g20
tp1132
Rp1133
(I1
(I1
tp1134
g26
I00
S'\xb2\xff\x7f?'
p1135
tp1136
b(lp1137
g32
atp1138
s(g3
(g7
S'\xb9\x00\x00\x00'
p1139
tp1140
Rp1141
g3
(g7
S'\x0f\x00\x00\x00'
p1142
tp1143
Rp1144
tp1145
(g17
(g18
(I0
tp1146
g20
tp1147
Rp1148
(I1
(I1
tp1149
g26
I00
S'\xdcP\x7f?'
p1150
tp1151
b(lp1152
g32
atp1153
s(g256
g3
(g7
S'2\x00\x00\x00'
p1154
tp1155
Rp1156
tp1157
(g17
(g18
(I0
tp1158
g20
tp1159
Rp1160
(I1
(I1
tp1161
g26
I00
S'm\xf4\x7f?'
p1162
tp1163
b(lp1164
g32
atp1165
s(g409
g3
(g7
S'2\x00\x00\x00'
p1166
tp1167
Rp1168
tp1169
(g17
(g18
(I0
tp1170
g20
tp1171
Rp1172
(I1
(I1
tp1173
g26
I00
S'\x0e\xd8t?'
p1174
tp1175
b(lp1176
g32
atp1177
s(g3
(g7
S's\x00\x00\x00'
p1178
tp1179
Rp1180
g3
(g7
S'\x05\x00\x00\x00'
p1181
tp1182
Rp1183
tp1184
(g17
(g18
(I0
tp1185
g20
tp1186
Rp1187
(I1
(I1
tp1188
g26
I00
S'\x0e\xe1\x7f?'
p1189
tp1190
b(lp1191
g32
atp1192
s(g817
g3
(g7
S'F\x00\x00\x00'
p1193
tp1194
Rp1195
tp1196
(g17
(g18
(I0
tp1197
g20
tp1198
Rp1199
(I1
(I1
tp1200
g26
I00
S'\x14k\x7f?'
p1201
tp1202
b(lp1203
g32
atp1204
s(g1054
g3
(g7
S'\n\x00\x00\x00'
p1205
tp1206
Rp1207
tp1208
(g17
(g18
(I0
tp1209
g20
tp1210
Rp1211
(I1
(I1
tp1212
g26
I00
S'\xc2\xf6\x7f?'
p1213
tp1214
b(lp1215
g32
atp1216
s(g463
g3
(g7
S'7\x00\x00\x00'
p1217
tp1218
Rp1219
tp1220
(g17
(g18
(I0
tp1221
g20
tp1222
Rp1223
(I1
(I1
tp1224
g26
I00
S'\xf2\xf3\x7f?'
p1225
tp1226
b(lp1227
g32
atp1228
s(g658
g3
(g7
S'\x00\x00\x00\x00'
p1229
tp1230
Rp1231
tp1232
(g17
(g18
(I0
tp1233
g20
tp1234
Rp1235
(I1
(I1
tp1236
g26
I00
S'B\xf1\x7f?'
p1237
tp1238
b(lp1239
g32
atp1240
s(g394
g3
(g7
S'K\x00\x00\x00'
p1241
tp1242
Rp1243
tp1244
(g17
(g18
(I0
tp1245
g20
tp1246
Rp1247
(I1
(I1
tp1248
g26
I00
S'\xa4\xff\x7f?'
p1249
tp1250
b(lp1251
g32
atp1252
s(g184
g3
(g7
S'P\x00\x00\x00'
p1253
tp1254
Rp1255
tp1256
(g17
(g18
(I0
tp1257
g20
tp1258
Rp1259
(I1
(I1
tp1260
g26
I00
S'\xb2^\x7f?'
p1261
tp1262
b(lp1263
g135
atp1264
s(g409
g3
(g7
S'P\x00\x00\x00'
p1265
tp1266
Rp1267
tp1268
(g17
(g18
(I0
tp1269
g20
tp1270
Rp1271
(I1
(I1
tp1272
g26
I00
S'[\xff\x7f?'
p1273
tp1274
b(lp1275
g32
atp1276
s(g523
g3
(g7
S'P\x00\x00\x00'
p1277
tp1278
Rp1279
tp1280
(g17
(g18
(I0
tp1281
g20
tp1282
Rp1283
(I1
(I1
tp1284
g26
I00
S'\xf6\xff\x7f?'
p1285
tp1286
b(lp1287
g32
atp1288
s(g523
g3
(g7
S'U\x00\x00\x00'
p1289
tp1290
Rp1291
tp1292
(g17
(g18
(I0
tp1293
g20
tp1294
Rp1295
(I1
(I1
tp1296
g26
I00
S'\xfa\xff\x7f?'
p1297
tp1298
b(lp1299
g32
atp1300
s(g111
g3
(g7
S'\x05\x00\x00\x00'
p1301
tp1302
Rp1303
tp1304
(g17
(g18
(I0
tp1305
g20
tp1306
Rp1307
(I1
(I1
tp1308
g26
I00
S'\xd0i\x7f?'
p1309
tp1310
b(lp1311
g32
atp1312
s(g1054
g3
(g7
S'\x14\x00\x00\x00'
p1313
tp1314
Rp1315
tp1316
(g17
(g18
(I0
tp1317
g20
tp1318
Rp1319
(I1
(I1
tp1320
g26
I00
S'(\xab\x7f?'
p1321
tp1322
b(lp1323
g32
atp1324
s(g658
g3
(g7
S'\x1e\x00\x00\x00'
p1325
tp1326
Rp1327
tp1328
(g17
(g18
(I0
tp1329
g20
tp1330
Rp1331
(I1
(I1
tp1332
g26
I00
S'\xdf\xdf\x7f?'
p1333
tp1334
b(lp1335
g32
atp1336
s(g577
g3
(g7
S'\x1e\x00\x00\x00'
p1337
tp1338
Rp1339
tp1340
(g17
(g18
(I0
tp1341
g20
tp1342
Rp1343
(I1
(I1
tp1344
g26
I00
S'q}\x7f?'
p1345
tp1346
b(lp1347
g32
atp1348
s(g81
g3
(g7
S'K\x00\x00\x00'
p1349
tp1350
Rp1351
tp1352
(g17
(g18
(I0
tp1353
g20
tp1354
Rp1355
(I1
(I1
tp1356
g26
I00
S'\x9e.q?'
p1357
tp1358
b(lp1359
g32
atp1360
s(g424
g3
(g7
S'<\x00\x00\x00'
p1361
tp1362
Rp1363
tp1364
(g17
(g18
(I0
tp1365
g20
tp1366
Rp1367
(I1
(I1
tp1368
g26
I00
S'\xdd\xf2\x7f?'
p1369
tp1370
b(lp1371
g32
atp1372
s(g604
g3
(g7
S'U\x00\x00\x00'
p1373
tp1374
Rp1375
tp1376
(g17
(g18
(I0
tp1377
g20
tp1378
Rp1379
(I1
(I1
tp1380
g26
I00
S'\xac\xfb\x7f?'
p1381
tp1382
b(lp1383
g32
atp1384
s(g979
g3
(g7
S'A\x00\x00\x00'
p1385
tp1386
Rp1387
tp1388
(g17
(g18
(I0
tp1389
g20
tp1390
Rp1391
(I1
(I1
tp1392
g26
I00
S'\xff\xff\x7f?'
p1393
tp1394
b(lp1395
g32
atp1396
s(g904
g3
(g7
S'A\x00\x00\x00'
p1397
tp1398
Rp1399
tp1400
(g17
(g18
(I0
tp1401
g20
tp1402
Rp1403
(I1
(I1
tp1404
g26
I00
S'%\xff\x7f?'
p1405
tp1406
b(lp1407
g32
atp1408
s(g802
g3
(g7
S'K\x00\x00\x00'
p1409
tp1410
Rp1411
tp1412
(g17
(g18
(I0
tp1413
g20
tp1414
Rp1415
(I1
(I1
tp1416
g26
I00
S'\xf2\xff\x7f?'
p1417
tp1418
b(lp1419
g32
atp1420
s(g154
g3
(g7
S'7\x00\x00\x00'
p1421
tp1422
Rp1423
tp1424
(g17
(g18
(I0
tp1425
g20
tp1426
Rp1427
(I1
(I1
tp1428
g26
I00
S'\x0e\xfa\x7f?'
p1429
tp1430
b(lp1431
g32
atp1432
s(g256
g3
(g7
S'\x0f\x00\x00\x00'
p1433
tp1434
Rp1435
tp1436
(g17
(g18
(I0
tp1437
g20
tp1438
Rp1439
(I1
(I1
tp1440
g26
I00
S'\x1e\xfe\x7f?'
p1441
tp1442
b(lp1443
g32
atp1444
s(g169
g3
(g7
S'\n\x00\x00\x00'
p1445
tp1446
Rp1447
tp1448
(g17
(g18
(I0
tp1449
g20
tp1450
Rp1451
(I1
(I1
tp1452
g26
I00
S'l\xfa\x7f?'
p1453
tp1454
b(lp1455
g135
atp1456
s(g199
g3
(g7
S'2\x00\x00\x00'
p1457
tp1458
Rp1459
tp1460
(g17
(g18
(I0
tp1461
g20
tp1462
Rp1463
(I1
(I1
tp1464
g26
I00
S'Y\xfe\x7f?'
p1465
tp1466
b(lp1467
g32
atp1468
s(g631
g3
(g7
S'\x1e\x00\x00\x00'
p1469
tp1470
Rp1471
tp1472
(g17
(g18
(I0
tp1473
g20
tp1474
Rp1475
(I1
(I1
tp1476
g26
I00
S'$\xee\x7f?'
p1477
tp1478
b(lp1479
g135
atp1480
s(g214
g3
(g7
S'\x1e\x00\x00\x00'
p1481
tp1482
Rp1483
tp1484
(g17
(g18
(I0
tp1485
g20
tp1486
Rp1487
(I1
(I1
tp1488
g26
I00
S'\xc5\xfb\x7f?'
p1489
tp1490
b(lp1491
g135
atp1492
s(g81
g3
(g7
S'A\x00\x00\x00'
p1493
tp1494
Rp1495
tp1496
(g17
(g18
(I0
tp1497
g20
tp1498
Rp1499
(I1
(I1
tp1500
g26
I00
S'n\x17|?'
p1501
tp1502
b(lp1503
g32
atp1504
s(g12
g3
(g7
S'U\x00\x00\x00'
p1505
tp1506
Rp1507
tp1508
(g17
(g18
(I0
tp1509
g20
tp1510
Rp1511
(I1
(I1
tp1512
g26
I00
S'\xff\xff\x7f?'
p1513
tp1514
b(lp1515
g32
atp1516
s(g66
g3
(g7
S'K\x00\x00\x00'
p1517
tp1518
Rp1519
tp1520
(g17
(g18
(I0
tp1521
g20
tp1522
Rp1523
(I1
(I1
tp1524
g26
I00
S'\xa6\x0ed?'
p1525
tp1526
b(lp1527
g135
atp1528
s(g271
g3
(g7
S'(\x00\x00\x00'
p1529
tp1530
Rp1531
tp1532
(g17
(g18
(I0
tp1533
g20
tp1534
Rp1535
(I1
(I1
tp1536
g26
I00
S'\x8c\x8bd?'
p1537
tp1538
b(lp1539
g32
atp1540
s(g697
g3
(g7
S'\x00\x00\x00\x00'
p1541
tp1542
Rp1543
tp1544
(g17
(g18
(I0
tp1545
g20
tp1546
Rp1547
(I1
(I1
tp1548
g26
I00
S'*\xfb\x7f?'
p1549
tp1550
b(lp1551
g32
atp1552
s(g111
g3
(g7
S'K\x00\x00\x00'
p1553
tp1554
Rp1555
tp1556
(g17
(g18
(I0
tp1557
g20
tp1558
Rp1559
(I1
(I1
tp1560
g26
I00
S'\xff\xff\x7f?'
p1561
tp1562
b(lp1563
g32
atp1564
s(g712
g3
(g7
S'-\x00\x00\x00'
p1565
tp1566
Rp1567
tp1568
(g17
(g18
(I0
tp1569
g20
tp1570
Rp1571
(I1
(I1
tp1572
g26
I00
S'ru=?'
p1573
tp1574
b(lp1575
g32
atp1576
s(g3
(g7
S'\xaa\x00\x00\x00'
p1577
tp1578
Rp1579
g3
(g7
S'(\x00\x00\x00'
p1580
tp1581
Rp1582
tp1583
(g17
(g18
(I0
tp1584
g20
tp1585
Rp1586
(I1
(I1
tp1587
g26
I00
S')\xff\x7f?'
p1588
tp1589
b(lp1590
g32
atp1591
s(g562
g3
(g7
S'(\x00\x00\x00'
p1592
tp1593
Rp1594
tp1595
(g17
(g18
(I0
tp1596
g20
tp1597
Rp1598
(I1
(I1
tp1599
g26
I00
S'\x03\xb9~?'
p1600
tp1601
b(lp1602
g32
atp1603
s(g169
g3
(g7
S'F\x00\x00\x00'
p1604
tp1605
Rp1606
tp1607
(g17
(g18
(I0
tp1608
g20
tp1609
Rp1610
(I1
(I1
tp1611
g26
I00
S'\xfa\xaa\x7f?'
p1612
tp1613
b(lp1614
g32
atp1615
s(g337
g3
(g7
S'A\x00\x00\x00'
p1616
tp1617
Rp1618
tp1619
(g17
(g18
(I0
tp1620
g20
tp1621
Rp1622
(I1
(I1
tp1623
g26
I00
S'1\xff\x7f?'
p1624
tp1625
b(lp1626
g32
atp1627
s(g139
g3
(g7
S'A\x00\x00\x00'
p1628
tp1629
Rp1630
tp1631
(g17
(g18
(I0
tp1632
g20
tp1633
Rp1634
(I1
(I1
tp1635
g26
I00
S'\xf4\xd2\x7f?'
p1636
tp1637
b(lp1638
g32
atp1639
s(g1141
g3
(g7
S'F\x00\x00\x00'
p1640
tp1641
Rp1642
tp1643
(g17
(g18
(I0
tp1644
g20
tp1645
Rp1646
(I1
(I1
tp1647
g26
I00
S'\x08\xb6\x7f?'
p1648
tp1649
b(lp1650
g32
atp1651
s(g424
g3
(g7
S'2\x00\x00\x00'
p1652
tp1653
Rp1654
tp1655
(g17
(g18
(I0
tp1656
g20
tp1657
Rp1658
(I1
(I1
tp1659
g26
I00
S'\xf5i\x7f?'
p1660
tp1661
b(lp1662
g32
atp1663
s(g51
g3
(g7
S'P\x00\x00\x00'
p1664
tp1665
Rp1666
tp1667
(g17
(g18
(I0
tp1668
g20
tp1669
Rp1670
(I1
(I1
tp1671
g26
I00
S'\xaa\xf9\x7f?'
p1672
tp1673
b(lp1674
g32
atp1675
s(g1579
g3
(g7
S'2\x00\x00\x00'
p1676
tp1677
Rp1678
tp1679
(g17
(g18
(I0
tp1680
g20
tp1681
Rp1682
(I1
(I1
tp1683
g26
I00
S'\xc1\xff\x7f?'
p1684
tp1685
b(lp1686
g32
atp1687
s(g802
g3
(g7
S'\x14\x00\x00\x00'
p1688
tp1689
Rp1690
tp1691
(g17
(g18
(I0
tp1692
g20
tp1693
Rp1694
(I1
(I1
tp1695
g26
I00
S'\xfaYK?'
p1696
tp1697
b(lp1698
g135
atp1699
s(g3
(g7
S'\x1e\x00\x00\x00'
p1700
tp1701
Rp1702
g3
(g7
S'\x05\x00\x00\x00'
p1703
tp1704
Rp1705
tp1706
(g17
(g18
(I0
tp1707
g20
tp1708
Rp1709
(I1
(I1
tp1710
g26
I00
S'\x84\xea\x7f?'
p1711
tp1712
b(lp1713
g32
atp1714
s(g409
g3
(g7
S'F\x00\x00\x00'
p1715
tp1716
Rp1717
tp1718
(g17
(g18
(I0
tp1719
g20
tp1720
Rp1721
(I1
(I1
tp1722
g26
I00
S'a\xff\x7f?'
p1723
tp1724
b(lp1725
g32
atp1726
s(g979
g3
(g7
S'\x1e\x00\x00\x00'
p1727
tp1728
Rp1729
tp1730
(g17
(g18
(I0
tp1731
g20
tp1732
Rp1733
(I1
(I1
tp1734
g26
I00
S'\x12\xadn?'
p1735
tp1736
b(lp1737
g32
atp1738
s(g111
g3
(g7
S'\x1e\x00\x00\x00'
p1739
tp1740
Rp1741
tp1742
(g17
(g18
(I0
tp1743
g20
tp1744
Rp1745
(I1
(I1
tp1746
g26
I00
S'\x1e\xfdG?'
p1747
tp1748
b(lp1749
g135
atp1750
s(g352
g3
(g7
S'F\x00\x00\x00'
p1751
tp1752
Rp1753
tp1754
(g17
(g18
(I0
tp1755
g20
tp1756
Rp1757
(I1
(I1
tp1758
g26
I00
S'\xe6\xf0\x7f?'
p1759
tp1760
b(lp1761
g32
atp1762
s(g379
g3
(g7
S'P\x00\x00\x00'
p1763
tp1764
Rp1765
tp1766
(g17
(g18
(I0
tp1767
g20
tp1768
Rp1769
(I1
(I1
tp1770
g26
I00
S'\xfd\xff\x7f?'
p1771
tp1772
b(lp1773
g32
atp1774
s(g562
g3
(g7
S'#\x00\x00\x00'
p1775
tp1776
Rp1777
tp1778
(g17
(g18
(I0
tp1779
g20
tp1780
Rp1781
(I1
(I1
tp1782
g26
I00
S'EC\x0e?'
p1783
tp1784
b(lp1785
g32
atp1786
s(g66
g3
(g7
S'(\x00\x00\x00'
p1787
tp1788
Rp1789
tp1790
(g17
(g18
(I0
tp1791
g20
tp1792
Rp1793
(I1
(I1
tp1794
g26
I00
S'"\xe5;?'
p1795
tp1796
b(lp1797
g32
atp1798
s(g493
g3
(g7
S'F\x00\x00\x00'
p1799
tp1800
Rp1801
tp1802
(g17
(g18
(I0
tp1803
g20
tp1804
Rp1805
(I1
(I1
tp1806
g26
I00
S'\xfd\xea\x7f?'
p1807
tp1808
b(lp1809
g32
atp1810
s(g409
g3
(g7
S'<\x00\x00\x00'
p1811
tp1812
Rp1813
tp1814
(g17
(g18
(I0
tp1815
g20
tp1816
Rp1817
(I1
(I1
tp1818
g26
I00
S'L\xf7\x7f?'
p1819
tp1820
b(lp1821
g32
atp1822
s(g577
g3
(g7
S'#\x00\x00\x00'
p1823
tp1824
Rp1825
tp1826
(g17
(g18
(I0
tp1827
g20
tp1828
Rp1829
(I1
(I1
tp1830
g26
I00
S'\x8c\xbf\x7f?'
p1831
tp1832
b(lp1833
g32
atp1834
s(g1141
g3
(g7
S'7\x00\x00\x00'
p1835
tp1836
Rp1837
tp1838
(g17
(g18
(I0
tp1839
g20
tp1840
Rp1841
(I1
(I1
tp1842
g26
I00
S'v\xff\x7f?'
p1843
tp1844
b(lp1845
g32
atp1846
s(g81
g3
(g7
S'\x1e\x00\x00\x00'
p1847
tp1848
Rp1849
tp1850
(g17
(g18
(I0
tp1851
g20
tp1852
Rp1853
(I1
(I1
tp1854
g26
I00
S'\x07\xfb\x7f?'
p1855
tp1856
b(lp1857
g135
atp1858
s(g478
g3
(g7
S'\x05\x00\x00\x00'
p1859
tp1860
Rp1861
tp1862
(g17
(g18
(I0
tp1863
g20
tp1864
Rp1865
(I1
(I1
tp1866
g26
I00
S'\xf9\xfd\x7f?'
p1867
tp1868
b(lp1869
g32
atp1870
s(g463
g3
(g7
S'P\x00\x00\x00'
p1871
tp1872
Rp1873
tp1874
(g17
(g18
(I0
tp1875
g20
tp1876
Rp1877
(I1
(I1
tp1878
g26
I00
S'\xca\xf8\x7f?'
p1879
tp1880
b(lp1881
g32
atp1882
s(g1180
g3
(g7
S'F\x00\x00\x00'
p1883
tp1884
Rp1885
tp1886
(g17
(g18
(I0
tp1887
g20
tp1888
Rp1889
(I1
(I1
tp1890
g26
I00
S'\x10\xd0{?'
p1891
tp1892
b(lp1893
g32
atp1894
s(g463
g3
(g7
S'\x1e\x00\x00\x00'
p1895
tp1896
Rp1897
tp1898
(g17
(g18
(I0
tp1899
g20
tp1900
Rp1901
(I1
(I1
tp1902
g26
I00
S'\xce_\x7f?'
p1903
tp1904
b(lp1905
g32
atp1906
s(g36
g3
(g7
S'U\x00\x00\x00'
p1907
tp1908
Rp1909
tp1910
(g17
(g18
(I0
tp1911
g20
tp1912
Rp1913
(I1
(I1
tp1914
g26
I00
S'\xfc\xff\x7f?'
p1915
tp1916
b(lp1917
g32
atp1918
s(g727
g3
(g7
S'\x1e\x00\x00\x00'
p1919
tp1920
Rp1921
tp1922
(g17
(g18
(I0
tp1923
g20
tp1924
Rp1925
(I1
(I1
tp1926
g26
I00
S' yz?'
p1927
tp1928
b(lp1929
g32
atp1930
s(g1141
g3
(g7
S'\x19\x00\x00\x00'
p1931
tp1932
Rp1933
tp1934
(g17
(g18
(I0
tp1935
g20
tp1936
Rp1937
(I1
(I1
tp1938
g26
I00
S'\x8d\xf9\x7f?'
p1939
tp1940
b(lp1941
g32
atp1942
s(g256
g3
(g7
S'<\x00\x00\x00'
p1943
tp1944
Rp1945
tp1946
(g17
(g18
(I0
tp1947
g20
tp1948
Rp1949
(I1
(I1
tp1950
g26
I00
S'\x88\xfe\x7f?'
p1951
tp1952
b(lp1953
g32
atp1954
s(g802
g3
(g7
S'7\x00\x00\x00'
p1955
tp1956
Rp1957
tp1958
(g17
(g18
(I0
tp1959
g20
tp1960
Rp1961
(I1
(I1
tp1962
g26
I00
S']\xff\x7f?'
p1963
tp1964
b(lp1965
g32
atp1966
s(g394
g3
(g7
S'#\x00\x00\x00'
p1967
tp1968
Rp1969
tp1970
(g17
(g18
(I0
tp1971
g20
tp1972
Rp1973
(I1
(I1
tp1974
g26
I00
S'\x11q}?'
p1975
tp1976
b(lp1977
g32
atp1978
s(g199
g3
(g7
S'\x05\x00\x00\x00'
p1979
tp1980
Rp1981
tp1982
(g17
(g18
(I0
tp1983
g20
tp1984
Rp1985
(I1
(I1
tp1986
g26
I00
S'@k\x7f?'
p1987
tp1988
b(lp1989
g32
atp1990
s(g256
g3
(g7
S'F\x00\x00\x00'
p1991
tp1992
Rp1993
tp1994
(g17
(g18
(I0
tp1995
g20
tp1996
Rp1997
(I1
(I1
tp1998
g26
I00
S'\xbc\x02o?'
p1999
tp2000
b(lp2001
g32
atp2002
s(g817
g3
(g7
S'\n\x00\x00\x00'
p2003
tp2004
Rp2005
tp2006
(g17
(g18
(I0
tp2007
g20
tp2008
Rp2009
(I1
(I1
tp2010
g26
I00
S'\n\xf2\x7f?'
p2011
tp2012
b(lp2013
g32
atp2014
s(g727
g3
(g7
S'U\x00\x00\x00'
p2015
tp2016
Rp2017
tp2018
(g17
(g18
(I0
tp2019
g20
tp2020
Rp2021
(I1
(I1
tp2022
g26
I00
S'8\xcfM?'
p2023
tp2024
b(lp2025
g32
atp2026
s(g379
g3
(g7
S'7\x00\x00\x00'
p2027
tp2028
Rp2029
tp2030
(g17
(g18
(I0
tp2031
g20
tp2032
Rp2033
(I1
(I1
tp2034
g26
I00
S'\xd2h\x7f?'
p2035
tp2036
b(lp2037
g32
atp2038
s(g184
g3
(g7
S'F\x00\x00\x00'
p2039
tp2040
Rp2041
tp2042
(g17
(g18
(I0
tp2043
g20
tp2044
Rp2045
(I1
(I1
tp2046
g26
I00
S'\x8a\xa69?'
p2047
tp2048
b(lp2049
g32
atp2050
s(g712
g3
(g7
S'P\x00\x00\x00'
p2051
tp2052
Rp2053
tp2054
(g17
(g18
(I0
tp2055
g20
tp2056
Rp2057
(I1
(I1
tp2058
g26
I00
S'\xba\xf9\x7f?'
p2059
tp2060
b(lp2061
g32
atp2062
s(g3
(g7
S'\xa5\x00\x00\x00'
p2063
tp2064
Rp2065
g3
(g7
S'\n\x00\x00\x00'
p2066
tp2067
Rp2068
tp2069
(g17
(g18
(I0
tp2070
g20
tp2071
Rp2072
(I1
(I1
tp2073
g26
I00
S'\xa8\xe2\x7f?'
p2074
tp2075
b(lp2076
g32
atp2077
s(g214
g3
(g7
S'U\x00\x00\x00'
p2078
tp2079
Rp2080
tp2081
(g17
(g18
(I0
tp2082
g20
tp2083
Rp2084
(I1
(I1
tp2085
g26
I00
S'\x88\xb0|?'
p2086
tp2087
b(lp2088
g32
atp2089
s(g979
g3
(g7
S'\x19\x00\x00\x00'
p2090
tp2091
Rp2092
tp2093
(g17
(g18
(I0
tp2094
g20
tp2095
Rp2096
(I1
(I1
tp2097
g26
I00
S'\xe5\xe8\x7f?'
p2098
tp2099
b(lp2100
g32
atp2101
s(g184
g3
(g7
S'K\x00\x00\x00'
p2102
tp2103
Rp2104
tp2105
(g17
(g18
(I0
tp2106
g20
tp2107
Rp2108
(I1
(I1
tp2109
g26
I00
S'\xc0f\x7f?'
p2110
tp2111
b(lp2112
g135
atp2113
s(g817
g3
(g7
S'U\x00\x00\x00'
p2114
tp2115
Rp2116
tp2117
(g17
(g18
(I0
tp2118
g20
tp2119
Rp2120
(I1
(I1
tp2121
g26
I00
S'=\xf3\x7f?'
p2122
tp2123
b(lp2124
g32
atp2125
s(g508
g3
(g7
S'\x05\x00\x00\x00'
p2126
tp2127
Rp2128
tp2129
(g17
(g18
(I0
tp2130
g20
tp2131
Rp2132
(I1
(I1
tp2133
g26
I00
S'6l\x12?'
p2134
tp2135
b(lp2136
g32
atp2137
s(g2065
g3
(g7
S'\x14\x00\x00\x00'
p2138
tp2139
Rp2140
tp2141
(g17
(g18
(I0
tp2142
g20
tp2143
Rp2144
(I1
(I1
tp2145
g26
I00
S"'\xe2\x7f?"
p2146
tp2147
b(lp2148
g32
atp2149
s(g904
g3
(g7
S'\x0f\x00\x00\x00'
p2150
tp2151
Rp2152
tp2153
(g17
(g18
(I0
tp2154
g20
tp2155
Rp2156
(I1
(I1
tp2157
g26
I00
S'\x16\\\x7f?'
p2158
tp2159
b(lp2160
g32
atp2161
s(g271
g3
(g7
S'\x00\x00\x00\x00'
p2162
tp2163
Rp2164
tp2165
(g17
(g18
(I0
tp2166
g20
tp2167
Rp2168
(I1
(I1
tp2169
g26
I00
S'\x80\xe9\x7f?'
p2170
tp2171
b(lp2172
g32
atp2173
s(g111
g3
(g7
S'#\x00\x00\x00'
p2174
tp2175
Rp2176
tp2177
(g17
(g18
(I0
tp2178
g20
tp2179
Rp2180
(I1
(I1
tp2181
g26
I00
S'\xfb\xe8\x7f?'
p2182
tp2183
b(lp2184
g135
atp2185
s(g712
g3
(g7
S'\x05\x00\x00\x00'
p2186
tp2187
Rp2188
tp2189
(g17
(g18
(I0
tp2190
g20
tp2191
Rp2192
(I1
(I1
tp2193
g26
I00
S'\xb7\xfe\x7f?'
p2194
tp2195
b(lp2196
g32
atp2197
s(g154
g3
(g7
S'K\x00\x00\x00'
p2198
tp2199
Rp2200
tp2201
(g17
(g18
(I0
tp2202
g20
tp2203
Rp2204
(I1
(I1
tp2205
g26
I00
S'\xfb\xff\x7f?'
p2206
tp2207
b(lp2208
g32
atp2209
s(g169
g3
(g7
S'\x1e\x00\x00\x00'
p2210
tp2211
Rp2212
tp2213
(g17
(g18
(I0
tp2214
g20
tp2215
Rp2216
(I1
(I1
tp2217
g26
I00
S'4-\x7f?'
p2218
tp2219
b(lp2220
g32
atp2221
s(g1702
g3
(g7
S'K\x00\x00\x00'
p2222
tp2223
Rp2224
tp2225
(g17
(g18
(I0
tp2226
g20
tp2227
Rp2228
(I1
(I1
tp2229
g26
I00
S'\xf1\xff\x7f?'
p2230
tp2231
b(lp2232
g32
atp2233
s(g214
g3
(g7
S'\n\x00\x00\x00'
p2234
tp2235
Rp2236
tp2237
(g17
(g18
(I0
tp2238
g20
tp2239
Rp2240
(I1
(I1
tp2241
g26
I00
S'N\xf8\x7f?'
p2242
tp2243
b(lp2244
g32
atp2245
s(g184
g3
(g7
S'\n\x00\x00\x00'
p2246
tp2247
Rp2248
tp2249
(g17
(g18
(I0
tp2250
g20
tp2251
Rp2252
(I1
(I1
tp2253
g26
I00
S'&\xf0\x7f?'
p2254
tp2255
b(lp2256
g32
atp2257
s(g12
g3
(g7
S'A\x00\x00\x00'
p2258
tp2259
Rp2260
tp2261
(g17
(g18
(I0
tp2262
g20
tp2263
Rp2264
(I1
(I1
tp2265
g26
I00
S'\xff\xff\x7f?'
p2266
tp2267
b(lp2268
g32
atp2269
s(g463
g3
(g7
S'F\x00\x00\x00'
p2270
tp2271
Rp2272
tp2273
(g17
(g18
(I0
tp2274
g20
tp2275
Rp2276
(I1
(I1
tp2277
g26
I00
S'\xe7\xa4\x7f?'
p2278
tp2279
b(lp2280
g32
atp2281
s(g298
g3
(g7
S'\x0f\x00\x00\x00'
p2282
tp2283
Rp2284
tp2285
(g17
(g18
(I0
tp2286
g20
tp2287
Rp2288
(I1
(I1
tp2289
g26
I00
S'h\xfe\x7f?'
p2290
tp2291
b(lp2292
g32
atp2293
s(g214
g3
(g7
S'\x05\x00\x00\x00'
p2294
tp2295
Rp2296
tp2297
(g17
(g18
(I0
tp2298
g20
tp2299
Rp2300
(I1
(I1
tp2301
g26
I00
S'B\xff\x7f?'
p2302
tp2303
b(lp2304
g32
atp2305
s(g424
g3
(g7
S'\x00\x00\x00\x00'
p2306
tp2307
Rp2308
tp2309
(g17
(g18
(I0
tp2310
g20
tp2311
Rp2312
(I1
(I1
tp2313
g26
I00
S'\xa1\xfe\x7f?'
p2314
tp2315
b(lp2316
g32
atp2317
s(g658
g3
(g7
S'-\x00\x00\x00'
p2318
tp2319
Rp2320
tp2321
(g17
(g18
(I0
tp2322
g20
tp2323
Rp2324
(I1
(I1
tp2325
g26
I00
S'D\x94\x06?'
p2326
tp2327
b(lp2328
g135
atp2329
s(g562
g3
(g7
S'\x14\x00\x00\x00'
p2330
tp2331
Rp2332
tp2333
(g17
(g18
(I0
tp2334
g20
tp2335
Rp2336
(I1
(I1
tp2337
g26
I00
S'|R~?'
p2338
tp2339
b(lp2340
g32
atp2341
s(g463
g3
(g7
S'A\x00\x00\x00'
p2342
tp2343
Rp2344
tp2345
(g17
(g18
(I0
tp2346
g20
tp2347
Rp2348
(I1
(I1
tp2349
g26
I00
S'4\xe3\x7f?'
p2350
tp2351
b(lp2352
g32
atp2353
s(g1054
g3
(g7
S'\x0f\x00\x00\x00'
p2354
tp2355
Rp2356
tp2357
(g17
(g18
(I0
tp2358
g20
tp2359
Rp2360
(I1
(I1
tp2361
g26
I00
S'\xca\xf4\x7f?'
p2362
tp2363
b(lp2364
g32
atp2365
s(g463
g3
(g7
S'2\x00\x00\x00'
p2366
tp2367
Rp2368
tp2369
(g17
(g18
(I0
tp2370
g20
tp2371
Rp2372
(I1
(I1
tp2373
g26
I00
S'\x08\xfd\x7f?'
p2374
tp2375
b(lp2376
g32
atp2377
s(g229
g3
(g7
S'\x05\x00\x00\x00'
p2378
tp2379
Rp2380
tp2381
(g17
(g18
(I0
tp2382
g20
tp2383
Rp2384
(I1
(I1
tp2385
g26
I00
S'\xaa\xfe\x7f?'
p2386
tp2387
b(lp2388
g32
atp2389
s(g409
g3
(g7
S'7\x00\x00\x00'
p2390
tp2391
Rp2392
tp2393
(g17
(g18
(I0
tp2394
g20
tp2395
Rp2396
(I1
(I1
tp2397
g26
I00
S'$\xca\x7f?'
p2398
tp2399
b(lp2400
g32
atp2401
s(g1702
g3
(g7
S'\x19\x00\x00\x00'
p2402
tp2403
Rp2404
tp2405
(g17
(g18
(I0
tp2406
g20
tp2407
Rp2408
(I1
(I1
tp2409
g26
I00
S'\xec\xfa\x7f?'
p2410
tp2411
b(lp2412
g32
atp2413
s(g184
g3
(g7
S'U\x00\x00\x00'
p2414
tp2415
Rp2416
tp2417
(g17
(g18
(I0
tp2418
g20
tp2419
Rp2420
(I1
(I1
tp2421
g26
I00
S'e\xd6q?'
p2422
tp2423
b(lp2424
g135
atp2425
s(g508
g3
(g7
S'\x1e\x00\x00\x00'
p2426
tp2427
Rp2428
tp2429
(g17
(g18
(I0
tp2430
g20
tp2431
Rp2432
(I1
(I1
tp2433
g26
I00
S'l2\x7f?'
p2434
tp2435
b(lp2436
g32
atp2437
s(g81
g3
(g7
S'2\x00\x00\x00'
p2438
tp2439
Rp2440
tp2441
(g17
(g18
(I0
tp2442
g20
tp2443
Rp2444
(I1
(I1
tp2445
g26
I00
S'?\x0c{?'
p2446
tp2447
b(lp2448
g32
atp2449
s(g51
g3
(g7
S'-\x00\x00\x00'
p2450
tp2451
Rp2452
tp2453
(g17
(g18
(I0
tp2454
g20
tp2455
Rp2456
(I1
(I1
tp2457
g26
I00
S'?\xfd\x7f?'
p2458
tp2459
b(lp2460
g32
atp2461
s(g1702
g3
(g7
S'#\x00\x00\x00'
p2462
tp2463
Rp2464
tp2465
(g17
(g18
(I0
tp2466
g20
tp2467
Rp2468
(I1
(I1
tp2469
g26
I00
S'~q{?'
p2470
tp2471
b(lp2472
g32
atp2473
s(g81
g3
(g7
S'F\x00\x00\x00'
p2474
tp2475
Rp2476
tp2477
(g17
(g18
(I0
tp2478
g20
tp2479
Rp2480
(I1
(I1
tp2481
g26
I00
S'\x1cY\x7f?'
p2482
tp2483
b(lp2484
g32
atp2485
s(g697
g3
(g7
S'7\x00\x00\x00'
p2486
tp2487
Rp2488
tp2489
(g17
(g18
(I0
tp2490
g20
tp2491
Rp2492
(I1
(I1
tp2493
g26
I00
S'B\xfa\x7f?'
p2494
tp2495
b(lp2496
g32
atp2497
s(g2065
g3
(g7
S'K\x00\x00\x00'
p2498
tp2499
Rp2500
tp2501
(g17
(g18
(I0
tp2502
g20
tp2503
Rp2504
(I1
(I1
tp2505
g26
I00
S'_\xf9\x7f?'
p2506
tp2507
b(lp2508
g32
atp2509
s(g727
g3
(g7
S'A\x00\x00\x00'
p2510
tp2511
Rp2512
tp2513
(g17
(g18
(I0
tp2514
g20
tp2515
Rp2516
(I1
(I1
tp2517
g26
I00
S'R\xf1\x7f?'
p2518
tp2519
b(lp2520
g32
atp2521
s(g154
g3
(g7
S'2\x00\x00\x00'
p2522
tp2523
Rp2524
tp2525
(g17
(g18
(I0
tp2526
g20
tp2527
Rp2528
(I1
(I1
tp2529
g26
I00
S'\x02\xfa\x7f?'
p2530
tp2531
b(lp2532
g32
atp2533
s(g3
(g7
S'\xaf\x00\x00\x00'
p2534
tp2535
Rp2536
g3
(g7
S'2\x00\x00\x00'
p2537
tp2538
Rp2539
tp2540
(g17
(g18
(I0
tp2541
g20
tp2542
Rp2543
(I1
(I1
tp2544
g26
I00
S'\x8f\xff\x7f?'
p2545
tp2546
b(lp2547
g32
atp2548
s(g184
g3
(g7
S'\x19\x00\x00\x00'
p2549
tp2550
Rp2551
tp2552
(g17
(g18
(I0
tp2553
g20
tp2554
Rp2555
(I1
(I1
tp2556
g26
I00
S'\xac>n?'
p2557
tp2558
b(lp2559
g32
atp2560
s(g697
g3
(g7
S'-\x00\x00\x00'
p2561
tp2562
Rp2563
tp2564
(g17
(g18
(I0
tp2565
g20
tp2566
Rp2567
(I1
(I1
tp2568
g26
I00
S'\xe2}\x1d?'
p2569
tp2570
b(lp2571
g32
atp2572
s(g2065
g3
(g7
S'A\x00\x00\x00'
p2573
tp2574
Rp2575
tp2576
(g17
(g18
(I0
tp2577
g20
tp2578
Rp2579
(I1
(I1
tp2580
g26
I00
S'\xdc\xff\x7f?'
p2581
tp2582
b(lp2583
g32
atp2584
s(g523
g3
(g7
S'\x05\x00\x00\x00'
p2585
tp2586
Rp2587
tp2588
(g17
(g18
(I0
tp2589
g20
tp2590
Rp2591
(I1
(I1
tp2592
g26
I00
S'&\xf7\x7f?'
p2593
tp2594
b(lp2595
g32
atp2596
s(g658
g3
(g7
S'U\x00\x00\x00'
p2597
tp2598
Rp2599
tp2600
(g17
(g18
(I0
tp2601
g20
tp2602
Rp2603
(I1
(I1
tp2604
g26
I00
S':\xff\x7f?'
p2605
tp2606
b(lp2607
g32
atp2608
s(g1579
g3
(g7
S'\x05\x00\x00\x00'
p2609
tp2610
Rp2611
tp2612
(g17
(g18
(I0
tp2613
g20
tp2614
Rp2615
(I1
(I1
tp2616
g26
I00
S'*\xe7\x7f?'
p2617
tp2618
b(lp2619
g32
atp2620
s(g463
g3
(g7
S'\x14\x00\x00\x00'
p2621
tp2622
Rp2623
tp2624
(g17
(g18
(I0
tp2625
g20
tp2626
Rp2627
(I1
(I1
tp2628
g26
I00
S'(\xdar?'
p2629
tp2630
b(lp2631
g135
atp2632
s(g271
g3
(g7
S'-\x00\x00\x00'
p2633
tp2634
Rp2635
tp2636
(g17
(g18
(I0
tp2637
g20
tp2638
Rp2639
(I1
(I1
tp2640
g26
I00
S'\x86\xac\x7f?'
p2641
tp2642
b(lp2643
g32
atp2644
s(g727
g3
(g7
S'\x05\x00\x00\x00'
p2645
tp2646
Rp2647
tp2648
(g17
(g18
(I0
tp2649
g20
tp2650
Rp2651
(I1
(I1
tp2652
g26
I00
S'\x82\xf0\x7f?'
p2653
tp2654
b(lp2655
g32
atp2656
s(g298
g3
(g7
S'\x14\x00\x00\x00'
p2657
tp2658
Rp2659
tp2660
(g17
(g18
(I0
tp2661
g20
tp2662
Rp2663
(I1
(I1
tp2664
g26
I00
S'B\xff\x7f?'
p2665
tp2666
b(lp2667
g32
atp2668
s(g712
g3
(g7
S'(\x00\x00\x00'
p2669
tp2670
Rp2671
tp2672
(g17
(g18
(I0
tp2673
g20
tp2674
Rp2675
(I1
(I1
tp2676
g26
I00
S'\\\xf9]?'
p2677
tp2678
b(lp2679
g135
atp2680
s(g36
g3
(g7
S'A\x00\x00\x00'
p2681
tp2682
Rp2683
tp2684
(g17
(g18
(I0
tp2685
g20
tp2686
Rp2687
(I1
(I1
tp2688
g26
I00
S'\x94\xff\x7f?'
p2689
tp2690
b(lp2691
g32
atp2692
s(g727
g3
(g7
S'\n\x00\x00\x00'
p2693
tp2694
Rp2695
tp2696
(g17
(g18
(I0
tp2697
g20
tp2698
Rp2699
(I1
(I1
tp2700
g26
I00
S'\xf7\xf9\x7f?'
p2701
tp2702
b(lp2703
g32
atp2704
s(g298
g3
(g7
S'2\x00\x00\x00'
p2705
tp2706
Rp2707
tp2708
(g17
(g18
(I0
tp2709
g20
tp2710
Rp2711
(I1
(I1
tp2712
g26
I00
S'\x80\x1dm?'
p2713
tp2714
b(lp2715
g32
atp2716
s(g394
g3
(g7
S'7\x00\x00\x00'
p2717
tp2718
Rp2719
tp2720
(g17
(g18
(I0
tp2721
g20
tp2722
Rp2723
(I1
(I1
tp2724
g26
I00
S'\xf8\x9ex?'
p2725
tp2726
b(lp2727
g32
atp2728
s(g139
g3
(g7
S'<\x00\x00\x00'
p2729
tp2730
Rp2731
tp2732
(g17
(g18
(I0
tp2733
g20
tp2734
Rp2735
(I1
(I1
tp2736
g26
I00
S'\x10\xb9\x7f?'
p2737
tp2738
b(lp2739
g32
atp2740
s(g2065
g3
(g7
S'<\x00\x00\x00'
p2741
tp2742
Rp2743
tp2744
(g17
(g18
(I0
tp2745
g20
tp2746
Rp2747
(I1
(I1
tp2748
g26
I00
S'\xce\xff\x7f?'
p2749
tp2750
b(lp2751
g32
atp2752
s(g51
g3
(g7
S'U\x00\x00\x00'
p2753
tp2754
Rp2755
tp2756
(g17
(g18
(I0
tp2757
g20
tp2758
Rp2759
(I1
(I1
tp2760
g26
I00
S'\xf8\xfc\x7f?'
p2761
tp2762
b(lp2763
g32
atp2764
s(g1702
g3
(g7
S'\x00\x00\x00\x00'
p2765
tp2766
Rp2767
tp2768
(g17
(g18
(I0
tp2769
g20
tp2770
Rp2771
(I1
(I1
tp2772
g26
I00
S'\xf6\xf6\x7f?'
p2773
tp2774
b(lp2775
g32
atp2776
s(g493
g3
(g7
S'\x19\x00\x00\x00'
p2777
tp2778
Rp2779
tp2780
(g17
(g18
(I0
tp2781
g20
tp2782
Rp2783
(I1
(I1
tp2784
g26
I00
S'.\xb1\x04?'
p2785
tp2786
b(lp2787
g32
atp2788
s(g214
g3
(g7
S'A\x00\x00\x00'
p2789
tp2790
Rp2791
tp2792
(g17
(g18
(I0
tp2793
g20
tp2794
Rp2795
(I1
(I1
tp2796
g26
I00
S'\xc0\xff\x7f?'
p2797
tp2798
b(lp2799
g32
atp2800
s(g36
g3
(g7
S'\x1e\x00\x00\x00'
p2801
tp2802
Rp2803
tp2804
(g17
(g18
(I0
tp2805
g20
tp2806
Rp2807
(I1
(I1
tp2808
g26
I00
S'\x90\xfd\x7f?'
p2809
tp2810
b(lp2811
g32
atp2812
s(g66
g3
(g7
S'\x05\x00\x00\x00'
p2813
tp2814
Rp2815
tp2816
(g17
(g18
(I0
tp2817
g20
tp2818
Rp2819
(I1
(I1
tp2820
g26
I00
S'(\xf7\x7f?'
p2821
tp2822
b(lp2823
g32
atp2824
s(g337
g3
(g7
S'\x00\x00\x00\x00'
p2825
tp2826
Rp2827
tp2828
(g17
(g18
(I0
tp2829
g20
tp2830
Rp2831
(I1
(I1
tp2832
g26
I00
S'S\xfa\x7f?'
p2833
tp2834
b(lp2835
g32
atp2836
s(g1180
g3
(g7
S'7\x00\x00\x00'
p2837
tp2838
Rp2839
tp2840
(g17
(g18
(I0
tp2841
g20
tp2842
Rp2843
(I1
(I1
tp2844
g26
I00
S'O\x84w?'
p2845
tp2846
b(lp2847
g32
atp2848
s(g1054
g3
(g7
S'<\x00\x00\x00'
p2849
tp2850
Rp2851
tp2852
(g17
(g18
(I0
tp2853
g20
tp2854
Rp2855
(I1
(I1
tp2856
g26
I00
S'\xc0\xf9\x7f?'
p2857
tp2858
b(lp2859
g32
atp2860
s(g214
g3
(g7
S'2\x00\x00\x00'
p2861
tp2862
Rp2863
tp2864
(g17
(g18
(I0
tp2865
g20
tp2866
Rp2867
(I1
(I1
tp2868
g26
I00
S'\x12\xe5\x7f?'
p2869
tp2870
b(lp2871
g32
atp2872
s(g51
g3
(g7
S'\x00\x00\x00\x00'
p2873
tp2874
Rp2875
tp2876
(g17
(g18
(I0
tp2877
g20
tp2878
Rp2879
(I1
(I1
tp2880
g26
I00
S'*\xed\x7f?'
p2881
tp2882
b(lp2883
g32
atp2884
s(g229
g3
(g7
S'P\x00\x00\x00'
p2885
tp2886
Rp2887
tp2888
(g17
(g18
(I0
tp2889
g20
tp2890
Rp2891
(I1
(I1
tp2892
g26
I00
S'\xc4\xf5\x7f?'
p2893
tp2894
b(lp2895
g32
atp2896
s(g96
g3
(g7
S'#\x00\x00\x00'
p2897
tp2898
Rp2899
tp2900
(g17
(g18
(I0
tp2901
g20
tp2902
Rp2903
(I1
(I1
tp2904
g26
I00
S'\x9c\xe4\x7f?'
p2905
tp2906
b(lp2907
g32
atp2908
s(g96
g3
(g7
S'P\x00\x00\x00'
p2909
tp2910
Rp2911
tp2912
(g17
(g18
(I0
tp2913
g20
tp2914
Rp2915
(I1
(I1
tp2916
g26
I00
S'\xb3\xfb\x7f?'
p2917
tp2918
b(lp2919
g32
atp2920
s(g604
g3
(g7
S'<\x00\x00\x00'
p2921
tp2922
Rp2923
tp2924
(g17
(g18
(I0
tp2925
g20
tp2926
Rp2927
(I1
(I1
tp2928
g26
I00
S'\xd6\xa1{?'
p2929
tp2930
b(lp2931
g32
atp2932
s(g523
g3
(g7
S'\n\x00\x00\x00'
p2933
tp2934
Rp2935
tp2936
(g17
(g18
(I0
tp2937
g20
tp2938
Rp2939
(I1
(I1
tp2940
g26
I00
S'\x1d\xf8\x7f?'
p2941
tp2942
b(lp2943
g32
atp2944
s(g352
g3
(g7
S'\x00\x00\x00\x00'
p2945
tp2946
Rp2947
tp2948
(g17
(g18
(I0
tp2949
g20
tp2950
Rp2951
(I1
(I1
tp2952
g26
I00
S'\x92$R?'
p2953
tp2954
b(lp2955
g32
atp2956
s(g1141
g3
(g7
S'P\x00\x00\x00'
p2957
tp2958
Rp2959
tp2960
(g17
(g18
(I0
tp2961
g20
tp2962
Rp2963
(I1
(I1
tp2964
g26
I00
S'>\xf8\x7f?'
p2965
tp2966
b(lp2967
g32
atp2968
s(g817
g3
(g7
S'K\x00\x00\x00'
p2969
tp2970
Rp2971
tp2972
(g17
(g18
(I0
tp2973
g20
tp2974
Rp2975
(I1
(I1
tp2976
g26
I00
S'\xe1\xc5\x7f?'
p2977
tp2978
b(lp2979
g32
atp2980
s(g81
g3
(g7
S'\x19\x00\x00\x00'
p2981
tp2982
Rp2983
tp2984
(g17
(g18
(I0
tp2985
g20
tp2986
Rp2987
(I1
(I1
tp2988
g26
I00
S'\xe6d~?'
p2989
tp2990
b(lp2991
g32
atp2992
s(g424
g3
(g7
S'\x1e\x00\x00\x00'
p2993
tp2994
Rp2995
tp2996
(g17
(g18
(I0
tp2997
g20
tp2998
Rp2999
(I1
(I1
tp3000
g26
I00
S'\xe4\xfe\x7f?'
p3001
tp3002
b(lp3003
g32
atp3004
s(g2536
g3
(g7
S'\x0f\x00\x00\x00'
p3005
tp3006
Rp3007
tp3008
(g17
(g18
(I0
tp3009
g20
tp3010
Rp3011
(I1
(I1
tp3012
g26
I00
S'\xd4\xd8\x7f?'
p3013
tp3014
b(lp3015
g32
atp3016
s(g658
g3
(g7
S'#\x00\x00\x00'
p3017
tp3018
Rp3019
tp3020
(g17
(g18
(I0
tp3021
g20
tp3022
Rp3023
(I1
(I1
tp3024
g26
I00
S'\xdc r?'
p3025
tp3026
b(lp3027
g32
atp3028
s(g379
g3
(g7
S'\n\x00\x00\x00'
p3029
tp3030
Rp3031
tp3032
(g17
(g18
(I0
tp3033
g20
tp3034
Rp3035
(I1
(I1
tp3036
g26
I00
S'k\xfd\x7f?'
p3037
tp3038
b(lp3039
g32
atp3040
s(g394
g3
(g7
S'(\x00\x00\x00'
p3041
tp3042
Rp3043
tp3044
(g17
(g18
(I0
tp3045
g20
tp3046
Rp3047
(I1
(I1
tp3048
g26
I00
S'?\x80\x00?'
p3049
tp3050
b(lp3051
g135
atp3052
s(g199
g3
(g7
S'\x00\x00\x00\x00'
p3053
tp3054
Rp3055
tp3056
(g17
(g18
(I0
tp3057
g20
tp3058
Rp3059
(I1
(I1
tp3060
g26
I00
S' \xf7\x7f?'
p3061
tp3062
b(lp3063
g32
atp3064
s(g394
g3
(g7
S'F\x00\x00\x00'
p3065
tp3066
Rp3067
tp3068
(g17
(g18
(I0
tp3069
g20
tp3070
Rp3071
(I1
(I1
tp3072
g26
I00
S'`\xfc\x7f?'
p3073
tp3074
b(lp3075
g32
atp3076
s(g631
g3
(g7
S'A\x00\x00\x00'
p3077
tp3078
Rp3079
tp3080
(g17
(g18
(I0
tp3081
g20
tp3082
Rp3083
(I1
(I1
tp3084
g26
I00
S'\x00\x00\x80?'
p3085
tp3086
b(lp3087
g32
atp3088
s(g229
g3
(g7
S'7\x00\x00\x00'
p3089
tp3090
Rp3091
tp3092
(g17
(g18
(I0
tp3093
g20
tp3094
Rp3095
(I1
(I1
tp3096
g26
I00
S'|\xfe\x7f?'
p3097
tp3098
b(lp3099
g32
atp3100
s(g562
g3
(g7
S'\x00\x00\x00\x00'
p3101
tp3102
Rp3103
tp3104
(g17
(g18
(I0
tp3105
g20
tp3106
Rp3107
(I1
(I1
tp3108
g26
I00
S'\xfa\xf4\x7f?'
p3109
tp3110
b(lp3111
g32
atp3112
s(g904
g3
(g7
S'K\x00\x00\x00'
p3113
tp3114
Rp3115
tp3116
(g17
(g18
(I0
tp3117
g20
tp3118
Rp3119
(I1
(I1
tp3120
g26
I00
S'2\xb4\x7f?'
p3121
tp3122
b(lp3123
g32
atp3124
s(g508
g3
(g7
S'(\x00\x00\x00'
p3125
tp3126
Rp3127
tp3128
(g17
(g18
(I0
tp3129
g20
tp3130
Rp3131
(I1
(I1
tp3132
g26
I00
S'\xb7\xff\x7f?'
p3133
tp3134
b(lp3135
g32
atp3136
s(g2065
g3
(g7
S'\x0f\x00\x00\x00'
p3137
tp3138
Rp3139
tp3140
(g17
(g18
(I0
tp3141
g20
tp3142
Rp3143
(I1
(I1
tp3144
g26
I00
S'\xecc\x7f?'
p3145
tp3146
b(lp3147
g32
atp3148
s(g2536
g3
(g7
S'\n\x00\x00\x00'
p3149
tp3150
Rp3151
tp3152
(g17
(g18
(I0
tp3153
g20
tp3154
Rp3155
(I1
(I1
tp3156
g26
I00
S'n\xbf\x7f?'
p3157
tp3158
b(lp3159
g32
atp3160
s(g352
g3
(g7
S'A\x00\x00\x00'
p3161
tp3162
Rp3163
tp3164
(g17
(g18
(I0
tp3165
g20
tp3166
Rp3167
(I1
(I1
tp3168
g26
I00
S'\xf5\xf8\x7f?'
p3169
tp3170
b(lp3171
g32
atp3172
s(g229
g3
(g7
S'\x19\x00\x00\x00'
p3173
tp3174
Rp3175
tp3176
(g17
(g18
(I0
tp3177
g20
tp3178
Rp3179
(I1
(I1
tp3180
g26
I00
S'9\xf8\x7f?'
p3181
tp3182
b(lp3183
g32
atp3184
s(g1702
g3
(g7
S'-\x00\x00\x00'
p3185
tp3186
Rp3187
tp3188
(g17
(g18
(I0
tp3189
g20
tp3190
Rp3191
(I1
(I1
tp3192
g26
I00
S'\xdf\xa7$?'
p3193
tp3194
b(lp3195
g135
atp3196
s(g184
g3
(g7
S'\x05\x00\x00\x00'
p3197
tp3198
Rp3199
tp3200
(g17
(g18
(I0
tp3201
g20
tp3202
Rp3203
(I1
(I1
tp3204
g26
I00
S'B\xee\x7f?'
p3205
tp3206
b(lp3207
g32
atp3208
s(g1180
g3
(g7
S'<\x00\x00\x00'
p3209
tp3210
Rp3211
tp3212
(g17
(g18
(I0
tp3213
g20
tp3214
Rp3215
(I1
(I1
tp3216
g26
I00
S'T\xb0~?'
p3217
tp3218
b(lp3219
g32
atp3220
s(g523
g3
(g7
S'-\x00\x00\x00'
p3221
tp3222
Rp3223
tp3224
(g17
(g18
(I0
tp3225
g20
tp3226
Rp3227
(I1
(I1
tp3228
g26
I00
S'?K\\?'
p3229
tp3230
b(lp3231
g32
atp3232
s(g577
g3
(g7
S'\x0f\x00\x00\x00'
p3233
tp3234
Rp3235
tp3236
(g17
(g18
(I0
tp3237
g20
tp3238
Rp3239
(I1
(I1
tp3240
g26
I00
S'\xc6\xe7\x7f?'
p3241
tp3242
b(lp3243
g32
atp3244
s(g229
g3
(g7
S'\x1e\x00\x00\x00'
p3245
tp3246
Rp3247
tp3248
(g17
(g18
(I0
tp3249
g20
tp3250
Rp3251
(I1
(I1
tp3252
g26
I00
S'\xa0\xf6\x7f?'
p3253
tp3254
b(lp3255
g32
atp3256
s(g1702
g3
(g7
S'7\x00\x00\x00'
p3257
tp3258
Rp3259
tp3260
(g17
(g18
(I0
tp3261
g20
tp3262
Rp3263
(I1
(I1
tp3264
g26
I00
S'\xd0\xce\x7f?'
p3265
tp3266
b(lp3267
g32
atp3268
s(g271
g3
(g7
S'\x05\x00\x00\x00'
p3269
tp3270
Rp3271
tp3272
(g17
(g18
(I0
tp3273
g20
tp3274
Rp3275
(I1
(I1
tp3276
g26
I00
S'F\xb4\x7f?'
p3277
tp3278
b(lp3279
g32
atp3280
s(g697
g3
(g7
S'#\x00\x00\x00'
p3281
tp3282
Rp3283
tp3284
(g17
(g18
(I0
tp3285
g20
tp3286
Rp3287
(I1
(I1
tp3288
g26
I00
S'\xfe\xe7\x7f?'
p3289
tp3290
b(lp3291
g135
atp3292
s(g604
g3
(g7
S'7\x00\x00\x00'
p3293
tp3294
Rp3295
tp3296
(g17
(g18
(I0
tp3297
g20
tp3298
Rp3299
(I1
(I1
tp3300
g26
I00
S'\x05\xe6D?'
p3301
tp3302
b(lp3303
g135
atp3304
s(g979
g3
(g7
S'P\x00\x00\x00'
p3305
tp3306
Rp3307
tp3308
(g17
(g18
(I0
tp3309
g20
tp3310
Rp3311
(I1
(I1
tp3312
g26
I00
S'\xfc\xff\x7f?'
p3313
tp3314
b(lp3315
g32
atp3316
s(g111
g3
(g7
S'(\x00\x00\x00'
p3317
tp3318
Rp3319
tp3320
(g17
(g18
(I0
tp3321
g20
tp3322
Rp3323
(I1
(I1
tp3324
g26
I00
S'*\x12N?'
p3325
tp3326
b(lp3327
g135
atp3328
s(g712
g3
(g7
S'\x00\x00\x00\x00'
p3329
tp3330
Rp3331
tp3332
(g17
(g18
(I0
tp3333
g20
tp3334
Rp3335
(I1
(I1
tp3336
g26
I00
S'P\xfe\x7f?'
p3337
tp3338
b(lp3339
g32
atp3340
s(g658
g3
(g7
S'K\x00\x00\x00'
p3341
tp3342
Rp3343
tp3344
(g17
(g18
(I0
tp3345
g20
tp3346
Rp3347
(I1
(I1
tp3348
g26
I00
S'\x80\xff\x7f?'
p3349
tp3350
b(lp3351
g32
atp3352
s(g154
g3
(g7
S'F\x00\x00\x00'
p3353
tp3354
Rp3355
tp3356
(g17
(g18
(I0
tp3357
g20
tp3358
Rp3359
(I1
(I1
tp3360
g26
I00
S'\xff\xff\x7f?'
p3361
tp3362
b(lp3363
g32
atp3364
s(g697
g3
(g7
S'\x19\x00\x00\x00'
p3365
tp3366
Rp3367
tp3368
(g17
(g18
(I0
tp3369
g20
tp3370
Rp3371
(I1
(I1
tp3372
g26
I00
S'j\x06\x1d?'
p3373
tp3374
b(lp3375
g32
atp3376
s(g1180
g3
(g7
S'\n\x00\x00\x00'
p3377
tp3378
Rp3379
tp3380
(g17
(g18
(I0
tp3381
g20
tp3382
Rp3383
(I1
(I1
tp3384
g26
I00
S'.\xe8\x7f?'
p3385
tp3386
b(lp3387
g32
atp3388
s(g1702
g3
(g7
S'F\x00\x00\x00'
p3389
tp3390
Rp3391
tp3392
(g17
(g18
(I0
tp3393
g20
tp3394
Rp3395
(I1
(I1
tp3396
g26
I00
S'\xfd\xff\x7f?'
p3397
tp3398
b(lp3399
g32
atp3400
s(g139
g3
(g7
S'\x14\x00\x00\x00'
p3401
tp3402
Rp3403
tp3404
(g17
(g18
(I0
tp3405
g20
tp3406
Rp3407
(I1
(I1
tp3408
g26
I00
S'\x81\xcc\x7f?'
p3409
tp3410
b(lp3411
g32
atp3412
s(g409
g3
(g7
S'\x14\x00\x00\x00'
p3413
tp3414
Rp3415
tp3416
(g17
(g18
(I0
tp3417
g20
tp3418
Rp3419
(I1
(I1
tp3420
g26
I00
S'\x1a\xf3\x7f?'
p3421
tp3422
b(lp3423
g32
atp3424
s(g523
g3
(g7
S'\x19\x00\x00\x00'
p3425
tp3426
Rp3427
tp3428
(g17
(g18
(I0
tp3429
g20
tp3430
Rp3431
(I1
(I1
tp3432
g26
I00
S'\x08\xff\x7f?'
p3433
tp3434
b(lp3435
g32
atp3436
s(g154
g3
(g7
S'\x0f\x00\x00\x00'
p3437
tp3438
Rp3439
tp3440
(g17
(g18
(I0
tp3441
g20
tp3442
Rp3443
(I1
(I1
tp3444
g26
I00
S'\x14\xdc\x7f?'
p3445
tp3446
b(lp3447
g32
atp3448
s(g1054
g3
(g7
S'P\x00\x00\x00'
p3449
tp3450
Rp3451
tp3452
(g17
(g18
(I0
tp3453
g20
tp3454
Rp3455
(I1
(I1
tp3456
g26
I00
S'\xe0\xff\x7f?'
p3457
tp3458
b(lp3459
g32
atp3460
s(g2536
g3
(g7
S'\x14\x00\x00\x00'
p3461
tp3462
Rp3463
tp3464
(g17
(g18
(I0
tp3465
g20
tp3466
Rp3467
(I1
(I1
tp3468
g26
I00
S'\n\xee\x7f?'
p3469
tp3470
b(lp3471
g32
atp3472
s(g508
g3
(g7
S'7\x00\x00\x00'
p3473
tp3474
Rp3475
tp3476
(g17
(g18
(I0
tp3477
g20
tp3478
Rp3479
(I1
(I1
tp3480
g26
I00
S'\x0f\xec\x7f?'
p3481
tp3482
b(lp3483
g32
atp3484
s(g298
g3
(g7
S'\x00\x00\x00\x00'
p3485
tp3486
Rp3487
tp3488
(g17
(g18
(I0
tp3489
g20
tp3490
Rp3491
(I1
(I1
tp3492
g26
I00
S'\x96\xfc\x7f?'
p3493
tp3494
b(lp3495
g32
atp3496
s(g337
g3
(g7
S'<\x00\x00\x00'
p3497
tp3498
Rp3499
tp3500
(g17
(g18
(I0
tp3501
g20
tp3502
Rp3503
(I1
(I1
tp3504
g26
I00
S'\xf1\xff\x7f?'
p3505
tp3506
b(lp3507
g32
atp3508
s(g712
g3
(g7
S'<\x00\x00\x00'
p3509
tp3510
Rp3511
tp3512
(g17
(g18
(I0
tp3513
g20
tp3514
Rp3515
(I1
(I1
tp3516
g26
I00
S'P\xff\x7f?'
p3517
tp3518
b(lp3519
g32
atp3520
s(g229
g3
(g7
S'#\x00\x00\x00'
p3521
tp3522
Rp3523
tp3524
(g17
(g18
(I0
tp3525
g20
tp3526
Rp3527
(I1
(I1
tp3528
g26
I00
S'\xbb\xff\x7f?'
p3529
tp3530
b(lp3531
g32
atp3532
s(g337
g3
(g7
S'7\x00\x00\x00'
p3533
tp3534
Rp3535
tp3536
(g17
(g18
(I0
tp3537
g20
tp3538
Rp3539
(I1
(I1
tp3540
g26
I00
S'7\xff\x7f?'
p3541
tp3542
b(lp3543
g32
atp3544
s(g802
g3
(g7
S'\x0f\x00\x00\x00'
p3545
tp3546
Rp3547
tp3548
(g17
(g18
(I0
tp3549
g20
tp3550
Rp3551
(I1
(I1
tp3552
g26
I00
S'X\x18}?'
p3553
tp3554
b(lp3555
g32
atp3556
s(g337
g3
(g7
S'\x0f\x00\x00\x00'
p3557
tp3558
Rp3559
tp3560
(g17
(g18
(I0
tp3561
g20
tp3562
Rp3563
(I1
(I1
tp3564
g26
I00
S'\x8a\xfa\x7f?'
p3565
tp3566
b(lp3567
g32
atp3568
s(g12
g3
(g7
S'\x1e\x00\x00\x00'
p3569
tp3570
Rp3571
tp3572
(g17
(g18
(I0
tp3573
g20
tp3574
Rp3575
(I1
(I1
tp3576
g26
I00
S'E\xf0\x00?'
p3577
tp3578
b(lp3579
g32
atp3580
s(g229
g3
(g7
S'\x00\x00\x00\x00'
p3581
tp3582
Rp3583
tp3584
(g17
(g18
(I0
tp3585
g20
tp3586
Rp3587
(I1
(I1
tp3588
g26
I00
S'\xab\xff\x7f?'
p3589
tp3590
b(lp3591
g32
atp3592
s(g697
g3
(g7
S'K\x00\x00\x00'
p3593
tp3594
Rp3595
tp3596
(g17
(g18
(I0
tp3597
g20
tp3598
Rp3599
(I1
(I1
tp3600
g26
I00
S'\xfb\xff\x7f?'
p3601
tp3602
b(lp3603
g32
atp3604
s(g1702
g3
(g7
S'\x14\x00\x00\x00'
p3605
tp3606
Rp3607
tp3608
(g17
(g18
(I0
tp3609
g20
tp3610
Rp3611
(I1
(I1
tp3612
g26
I00
S'\x92\xf6\x7f?'
p3613
tp3614
b(lp3615
g32
atp3616
s(g604
g3
(g7
S'\x14\x00\x00\x00'
p3617
tp3618
Rp3619
tp3620
(g17
(g18
(I0
tp3621
g20
tp3622
Rp3623
(I1
(I1
tp3624
g26
I00
S'\xae\xb8}?'
p3625
tp3626
b(lp3627
g32
atp3628
s(g111
g3
(g7
S'\x0f\x00\x00\x00'
p3629
tp3630
Rp3631
tp3632
(g17
(g18
(I0
tp3633
g20
tp3634
Rp3635
(I1
(I1
tp3636
g26
I00
S'\x8a\x85\x7f?'
p3637
tp3638
b(lp3639
g32
atp3640
s(g36
g3
(g7
S'\n\x00\x00\x00'
p3641
tp3642
Rp3643
tp3644
(g17
(g18
(I0
tp3645
g20
tp3646
Rp3647
(I1
(I1
tp3648
g26
I00
S'\xea\xfd\x7f?'
p3649
tp3650
b(lp3651
g32
atp3652
s(g2536
g3
(g7
S'F\x00\x00\x00'
p3653
tp3654
Rp3655
tp3656
(g17
(g18
(I0
tp3657
g20
tp3658
Rp3659
(I1
(I1
tp3660
g26
I00
S'r\xf4\x7f?'
p3661
tp3662
b(lp3663
g32
atp3664
s(g727
g3
(g7
S'\x00\x00\x00\x00'
p3665
tp3666
Rp3667
tp3668
(g17
(g18
(I0
tp3669
g20
tp3670
Rp3671
(I1
(I1
tp3672
g26
I00
S'\xdc\xf8\x7f?'
p3673
tp3674
b(lp3675
g32
atp3676
s(g51
g3
(g7
S'2\x00\x00\x00'
p3677
tp3678
Rp3679
tp3680
(g17
(g18
(I0
tp3681
g20
tp3682
Rp3683
(I1
(I1
tp3684
g26
I00
S'x\xf5\x7f?'
p3685
tp3686
b(lp3687
g32
atp3688
s(g379
g3
(g7
S'A\x00\x00\x00'
p3689
tp3690
Rp3691
tp3692
(g17
(g18
(I0
tp3693
g20
tp3694
Rp3695
(I1
(I1
tp3696
g26
I00
S'\xda\xff\x7f?'
p3697
tp3698
b(lp3699
g32
atp3700
s(g66
g3
(g7
S'F\x00\x00\x00'
p3701
tp3702
Rp3703
tp3704
(g17
(g18
(I0
tp3705
g20
tp3706
Rp3707
(I1
(I1
tp3708
g26
I00
S'H\xddz?'
p3709
tp3710
b(lp3711
g32
atp3712
s(g979
g3
(g7
S'K\x00\x00\x00'
p3713
tp3714
Rp3715
tp3716
(g17
(g18
(I0
tp3717
g20
tp3718
Rp3719
(I1
(I1
tp3720
g26
I00
S'\xfe\xff\x7f?'
p3721
tp3722
b(lp3723
g32
atp3724
s(g2536
g3
(g7
S'7\x00\x00\x00'
p3725
tp3726
Rp3727
tp3728
(g17
(g18
(I0
tp3729
g20
tp3730
Rp3731
(I1
(I1
tp3732
g26
I00
S'\xb5\xff\x7f?'
p3733
tp3734
b(lp3735
g32
atp3736
s(g478
g3
(g7
S'\n\x00\x00\x00'
p3737
tp3738
Rp3739
tp3740
(g17
(g18
(I0
tp3741
g20
tp3742
Rp3743
(I1
(I1
tp3744
g26
I00
S'\x9f\xfa\x7f?'
p3745
tp3746
b(lp3747
g32
atp3748
s(g2065
g3
(g7
S'F\x00\x00\x00'
p3749
tp3750
Rp3751
tp3752
(g17
(g18
(I0
tp3753
g20
tp3754
Rp3755
(I1
(I1
tp3756
g26
I00
S'\xc3\xfe\x7f?'
p3757
tp3758
b(lp3759
g32
atp3760
s(g604
g3
(g7
S'(\x00\x00\x00'
p3761
tp3762
Rp3763
tp3764
(g17
(g18
(I0
tp3765
g20
tp3766
Rp3767
(I1
(I1
tp3768
g26
I00
S'\xc72 ?'
p3769
tp3770
b(lp3771
g32
atp3772
s(g394
g3
(g7
S'\x00\x00\x00\x00'
p3773
tp3774
Rp3775
tp3776
(g17
(g18
(I0
tp3777
g20
tp3778
Rp3779
(I1
(I1
tp3780
g26
I00
S'\x1e\xfa\x7f?'
p3781
tp3782
b(lp3783
g32
atp3784
s(g523
g3
(g7
S'\x1e\x00\x00\x00'
p3785
tp3786
Rp3787
tp3788
(g17
(g18
(I0
tp3789
g20
tp3790
Rp3791
(I1
(I1
tp3792
g26
I00
S'\xd7\xab\x7f?'
p3793
tp3794
b(lp3795
g32
atp3796
s(g577
g3
(g7
S'P\x00\x00\x00'
p3797
tp3798
Rp3799
tp3800
(g17
(g18
(I0
tp3801
g20
tp3802
Rp3803
(I1
(I1
tp3804
g26
I00
S'!\xff\x7f?'
p3805
tp3806
b(lp3807
g32
atp3808
s(g271
g3
(g7
S'2\x00\x00\x00'
p3809
tp3810
Rp3811
tp3812
(g17
(g18
(I0
tp3813
g20
tp3814
Rp3815
(I1
(I1
tp3816
g26
I00
S'@\xfc\x7f?'
p3817
tp3818
b(lp3819
g32
atp3820
s(g478
g3
(g7
S'\x14\x00\x00\x00'
p3821
tp3822
Rp3823
tp3824
(g17
(g18
(I0
tp3825
g20
tp3826
Rp3827
(I1
(I1
tp3828
g26
I00
S'\x04\xf3}?'
p3829
tp3830
b(lp3831
g32
atp3832
s(g379
g3
(g7
S'\x14\x00\x00\x00'
p3833
tp3834
Rp3835
tp3836
(g17
(g18
(I0
tp3837
g20
tp3838
Rp3839
(I1
(I1
tp3840
g26
I00
S'\xaa\xff\x7f?'
p3841
tp3842
b(lp3843
g32
atp3844
s(g199
g3
(g7
S'\x1e\x00\x00\x00'
p3845
tp3846
Rp3847
tp3848
(g17
(g18
(I0
tp3849
g20
tp3850
Rp3851
(I1
(I1
tp3852
g26
I00
S'\nA\x7f?'
p3853
tp3854
b(lp3855
g32
atp3856
s(g409
g3
(g7
S'\x1e\x00\x00\x00'
p3857
tp3858
Rp3859
tp3860
(g17
(g18
(I0
tp3861
g20
tp3862
Rp3863
(I1
(I1
tp3864
g26
I00
S'\\\xf1\x7f?'
p3865
tp3866
b(lp3867
g32
atp3868
s(g1141
g3
(g7
S'\n\x00\x00\x00'
p3869
tp3870
Rp3871
tp3872
(g17
(g18
(I0
tp3873
g20
tp3874
Rp3875
(I1
(I1
tp3876
g26
I00
S'K\xfa\x7f?'
p3877
tp3878
b(lp3879
g32
atp3880
s(g727
g3
(g7
S'2\x00\x00\x00'
p3881
tp3882
Rp3883
tp3884
(g17
(g18
(I0
tp3885
g20
tp3886
Rp3887
(I1
(I1
tp3888
g26
I00
S't\x9d\x7f?'
p3889
tp3890
b(lp3891
g32
atp3892
s(g298
g3
(g7
S'7\x00\x00\x00'
p3893
tp3894
Rp3895
tp3896
(g17
(g18
(I0
tp3897
g20
tp3898
Rp3899
(I1
(I1
tp3900
g26
I00
S'\x98N\x7f?'
p3901
tp3902
b(lp3903
g32
atp3904
s(g394
g3
(g7
S'<\x00\x00\x00'
p3905
tp3906
Rp3907
tp3908
(g17
(g18
(I0
tp3909
g20
tp3910
Rp3911
(I1
(I1
tp3912
g26
I00
S'\x95\xdd\x7f?'
p3913
tp3914
b(lp3915
g32
atp3916
s(g169
g3
(g7
S'\x19\x00\x00\x00'
p3917
tp3918
Rp3919
tp3920
(g17
(g18
(I0
tp3921
g20
tp3922
Rp3923
(I1
(I1
tp3924
g26
I00
S'M\r\t?'
p3925
tp3926
b(lp3927
g135
atp3928
s(g631
g3
(g7
S'U\x00\x00\x00'
p3929
tp3930
Rp3931
tp3932
(g17
(g18
(I0
tp3933
g20
tp3934
Rp3935
(I1
(I1
tp3936
g26
I00
S'\xff\xff\x7f?'
p3937
tp3938
b(lp3939
g32
atp3940
s(g658
g3
(g7
S'\x05\x00\x00\x00'
p3941
tp3942
Rp3943
tp3944
(g17
(g18
(I0
tp3945
g20
tp3946
Rp3947
(I1
(I1
tp3948
g26
I00
S'\xd2\xd8\x7f?'
p3949
tp3950
b(lp3951
g32
atp3952
s(g66
g3
(g7
S'\x1e\x00\x00\x00'
p3953
tp3954
Rp3955
tp3956
(g17
(g18
(I0
tp3957
g20
tp3958
Rp3959
(I1
(I1
tp3960
g26
I00
S'\xe2\xa4}?'
p3961
tp3962
b(lp3963
g135
atp3964
s(g352
g3
(g7
S'K\x00\x00\x00'
p3965
tp3966
Rp3967
tp3968
(g17
(g18
(I0
tp3969
g20
tp3970
Rp3971
(I1
(I1
tp3972
g26
I00
S'\x95\xf9\x7f?'
p3973
tp3974
b(lp3975
g32
atp3976
s(g214
g3
(g7
S'F\x00\x00\x00'
p3977
tp3978
Rp3979
tp3980
(g17
(g18
(I0
tp3981
g20
tp3982
Rp3983
(I1
(I1
tp3984
g26
I00
S'\x04\xff\x7f?'
p3985
tp3986
b(lp3987
g32
atp3988
s(g111
g3
(g7
S'\x00\x00\x00\x00'
p3989
tp3990
Rp3991
tp3992
(g17
(g18
(I0
tp3993
g20
tp3994
Rp3995
(I1
(I1
tp3996
g26
I00
S'\xac\xfd\x7f?'
p3997
tp3998
b(lp3999
g32
atp4000
s(g394
g3
(g7
S'P\x00\x00\x00'
p4001
tp4002
Rp4003
tp4004
(g17
(g18
(I0
tp4005
g20
tp4006
Rp4007
(I1
(I1
tp4008
g26
I00
S'\xa3\xff\x7f?'
p4009
tp4010
b(lp4011
g32
atp4012
s(g2536
g3
(g7
S'<\x00\x00\x00'
p4013
tp4014
Rp4015
tp4016
(g17
(g18
(I0
tp4017
g20
tp4018
Rp4019
(I1
(I1
tp4020
g26
I00
S'\xa5\xff\x7f?'
p4021
tp4022
b(lp4023
g32
atp4024
s(g493
g3
(g7
S'\x1e\x00\x00\x00'
p4025
tp4026
Rp4027
tp4028
(g17
(g18
(I0
tp4029
g20
tp4030
Rp4031
(I1
(I1
tp4032
g26
I00
S'N\xc1\x7f?'
p4033
tp4034
b(lp4035
g32
atp4036
s(g463
g3
(g7
S'\x05\x00\x00\x00'
p4037
tp4038
Rp4039
tp4040
(g17
(g18
(I0
tp4041
g20
tp4042
Rp4043
(I1
(I1
tp4044
g26
I00
S'\xaf\xfc\x7f?'
p4045
tp4046
b(lp4047
g32
atp4048
s(g214
g3
(g7
S'7\x00\x00\x00'
p4049
tp4050
Rp4051
tp4052
(g17
(g18
(I0
tp4053
g20
tp4054
Rp4055
(I1
(I1
tp4056
g26
I00
S'\x96\xfb\x7f?'
p4057
tp4058
b(lp4059
g32
atp4060
s(g51
g3
(g7
S'\x05\x00\x00\x00'
p4061
tp4062
Rp4063
tp4064
(g17
(g18
(I0
tp4065
g20
tp4066
Rp4067
(I1
(I1
tp4068
g26
I00
S'\x82\xb3\x7f?'
p4069
tp4070
b(lp4071
g32
atp4072
s(g256
g3
(g7
S'\n\x00\x00\x00'
p4073
tp4074
Rp4075
tp4076
(g17
(g18
(I0
tp4077
g20
tp4078
Rp4079
(I1
(I1
tp4080
g26
I00
S'\xa6\xad\x7f?'
p4081
tp4082
b(lp4083
g32
atp4084
s(g493
g3
(g7
S'P\x00\x00\x00'
p4085
tp4086
Rp4087
tp4088
(g17
(g18
(I0
tp4089
g20
tp4090
Rp4091
(I1
(I1
tp4092
g26
I00
S'\x08\xf5\x7f?'
p4093
tp4094
b(lp4095
g32
atp4096
s(g96
g3
(g7
S'\x1e\x00\x00\x00'
p4097
tp4098
Rp4099
tp4100
(g17
(g18
(I0
tp4101
g20
tp4102
Rp4103
(I1
(I1
tp4104
g26
I00
S'\xfd\xe0\x7f?'
p4105
tp4106
b(lp4107
g32
atp4108
s(g96
g3
(g7
S'U\x00\x00\x00'
p4109
tp4110
Rp4111
tp4112
(g17
(g18
(I0
tp4113
g20
tp4114
Rp4115
(I1
(I1
tp4116
g26
I00
S'\xd0\xfe\x7f?'
p4117
tp4118
b(lp4119
g32
atp4120
s(g604
g3
(g7
S'#\x00\x00\x00'
p4121
tp4122
Rp4123
tp4124
(g17
(g18
(I0
tp4125
g20
tp4126
Rp4127
(I1
(I1
tp4128
g26
I00
S'AS\x06?'
p4129
tp4130
b(lp4131
g32
atp4132
s(g139
g3
(g7
S'\n\x00\x00\x00'
p4133
tp4134
Rp4135
tp4136
(g17
(g18
(I0
tp4137
g20
tp4138
Rp4139
(I1
(I1
tp4140
g26
I00
S'\xb6\xef\x7f?'
p4141
tp4142
b(lp4143
g32
atp4144
s(g712
g3
(g7
S'\x14\x00\x00\x00'
p4145
tp4146
Rp4147
tp4148
(g17
(g18
(I0
tp4149
g20
tp4150
Rp4151
(I1
(I1
tp4152
g26
I00
S'8\x93{?'
p4153
tp4154
b(lp4155
g135
atp4156
s(g463
g3
(g7
S'K\x00\x00\x00'
p4157
tp4158
Rp4159
tp4160
(g17
(g18
(I0
tp4161
g20
tp4162
Rp4163
(I1
(I1
tp4164
g26
I00
S'\xea\xa5\x7f?'
p4165
tp4166
b(lp4167
g32
atp4168
s(g352
g3
(g7
S'\x19\x00\x00\x00'
p4169
tp4170
Rp4171
tp4172
(g17
(g18
(I0
tp4173
g20
tp4174
Rp4175
(I1
(I1
tp4176
g26
I00
S'J\x8c(?'
p4177
tp4178
b(lp4179
g32
atp4180
s(g81
g3
(g7
S'\x14\x00\x00\x00'
p4181
tp4182
Rp4183
tp4184
(g17
(g18
(I0
tp4185
g20
tp4186
Rp4187
(I1
(I1
tp4188
g26
I00
S'l\xea\x7f?'
p4189
tp4190
b(lp4191
g32
atp4192
s(g697
g3
(g7
S'\x05\x00\x00\x00'
p4193
tp4194
Rp4195
tp4196
(g17
(g18
(I0
tp4197
g20
tp4198
Rp4199
(I1
(I1
tp4200
g26
I00
S'h\xe5\x7f?'
p4201
tp4202
b(lp4203
g32
atp4204
s(g154
g3
(g7
S'\x19\x00\x00\x00'
p4205
tp4206
Rp4207
tp4208
(g17
(g18
(I0
tp4209
g20
tp4210
Rp4211
(I1
(I1
tp4212
g26
I00
S'R\xfa\x7f?'
p4213
tp4214
b(lp4215
g32
atp4216
s(g604
g3
(g7
S'K\x00\x00\x00'
p4217
tp4218
Rp4219
tp4220
(g17
(g18
(I0
tp4221
g20
tp4222
Rp4223
(I1
(I1
tp4224
g26
I00
S'\x86\xe3\x7f?'
p4225
tp4226
b(lp4227
g32
atp4228
s(g1180
g3
(g7
S'\x1e\x00\x00\x00'
p4229
tp4230
Rp4231
tp4232
(g17
(g18
(I0
tp4233
g20
tp4234
Rp4235
(I1
(I1
tp4236
g26
I00
S'\xa2n|?'
p4237
tp4238
b(lp4239
g135
atp4240
s(g424
g3
(g7
S'\x19\x00\x00\x00'
p4241
tp4242
Rp4243
tp4244
(g17
(g18
(I0
tp4245
g20
tp4246
Rp4247
(I1
(I1
tp4248
g26
I00
S'\x13\xff\x7f?'
p4249
tp4250
b(lp4251
g32
atp4252
s(g1579
g3
(g7
S'-\x00\x00\x00'
p4253
tp4254
Rp4255
tp4256
(g17
(g18
(I0
tp4257
g20
tp4258
Rp4259
(I1
(I1
tp4260
g26
I00
S'\x81\xff\x7f?'
p4261
tp4262
b(lp4263
g32
atp4264
s(g2536
g3
(g7
S'\x00\x00\x00\x00'
p4265
tp4266
Rp4267
tp4268
(g17
(g18
(I0
tp4269
g20
tp4270
Rp4271
(I1
(I1
tp4272
g26
I00
S'f\xff\x7f?'
p4273
tp4274
b(lp4275
g32
atp4276
s(g229
g3
(g7
S'(\x00\x00\x00'
p4277
tp4278
Rp4279
tp4280
(g17
(g18
(I0
tp4281
g20
tp4282
Rp4283
(I1
(I1
tp4284
g26
I00
S'\xb8\xff\x7f?'
p4285
tp4286
b(lp4287
g32
atp4288
s(g298
g3
(g7
S'<\x00\x00\x00'
p4289
tp4290
Rp4291
tp4292
(g17
(g18
(I0
tp4293
g20
tp4294
Rp4295
(I1
(I1
tp4296
g26
I00
S'\xe5\xb7\x7f?'
p4297
tp4298
b(lp4299
g32
atp4300
s(g184
g3
(g7
S'\x14\x00\x00\x00'
p4301
tp4302
Rp4303
tp4304
(g17
(g18
(I0
tp4305
g20
tp4306
Rp4307
(I1
(I1
tp4308
g26
I00
S'\xca\xe5p?'
p4309
tp4310
b(lp4311
g32
atp4312
s(g199
g3
(g7
S'U\x00\x00\x00'
p4313
tp4314
Rp4315
tp4316
(g17
(g18
(I0
tp4317
g20
tp4318
Rp4319
(I1
(I1
tp4320
g26
I00
S'\x9e\xe8\x7f?'
p4321
tp4322
b(lp4323
g32
atp4324
s(g727
g3
(g7
S'\x14\x00\x00\x00'
p4325
tp4326
Rp4327
tp4328
(g17
(g18
(I0
tp4329
g20
tp4330
Rp4331
(I1
(I1
tp4332
g26
I00
S'\x84\xfd\x7f?'
p4333
tp4334
b(lp4335
g32
atp4336
s(g1579
g3
(g7
S'7\x00\x00\x00'
p4337
tp4338
Rp4339
tp4340
(g17
(g18
(I0
tp4341
g20
tp4342
Rp4343
(I1
(I1
tp4344
g26
I00
S'\xcb\xff\x7f?'
p4345
tp4346
b(lp4347
g32
atp4348
s(g36
g3
(g7
S'2\x00\x00\x00'
p4349
tp4350
Rp4351
tp4352
(g17
(g18
(I0
tp4353
g20
tp4354
Rp4355
(I1
(I1
tp4356
g26
I00
S'-\\\x01?'
p4357
tp4358
b(lp4359
g135
atp4360
s(g658
g3
(g7
S'<\x00\x00\x00'
p4361
tp4362
Rp4363
tp4364
(g17
(g18
(I0
tp4365
g20
tp4366
Rp4367
(I1
(I1
tp4368
g26
I00
S'U\xf9\x7f?'
p4369
tp4370
b(lp4371
g32
atp4372
s(g562
g3
(g7
S'\x05\x00\x00\x00'
p4373
tp4374
Rp4375
tp4376
(g17
(g18
(I0
tp4377
g20
tp4378
Rp4379
(I1
(I1
tp4380
g26
I00
S'\xb8\xb3\x7f?'
p4381
tp4382
b(lp4383
g32
atp4384
s(g66
g3
(g7
S'\x19\x00\x00\x00'
p4385
tp4386
Rp4387
tp4388
(g17
(g18
(I0
tp4389
g20
tp4390
Rp4391
(I1
(I1
tp4392
g26
I00
S'\xc8\xef\x0f?'
p4393
tp4394
b(lp4395
g135
atp4396
s(g727
g3
(g7
S'<\x00\x00\x00'
p4397
tp4398
Rp4399
tp4400
(g17
(g18
(I0
tp4401
g20
tp4402
Rp4403
(I1
(I1
tp4404
g26
I00
S'\xee\xfc\x7f?'
p4405
tp4406
b(lp4407
g32
atp4408
s(g424
g3
(g7
S'U\x00\x00\x00'
p4409
tp4410
Rp4411
tp4412
(g17
(g18
(I0
tp4413
g20
tp4414
Rp4415
(I1
(I1
tp4416
g26
I00
S'\xfe\xff\x7f?'
p4417
tp4418
b(lp4419
g32
atp4420
s(g111
g3
(g7
S'\x19\x00\x00\x00'
p4421
tp4422
Rp4423
tp4424
(g17
(g18
(I0
tp4425
g20
tp4426
Rp4427
(I1
(I1
tp4428
g26
I00
S"\x81\x0b'?"
p4429
tp4430
b(lp4431
g32
atp4432
s(g12
g3
(g7
S'\n\x00\x00\x00'
p4433
tp4434
Rp4435
tp4436
(g17
(g18
(I0
tp4437
g20
tp4438
Rp4439
(I1
(I1
tp4440
g26
I00
S'\x9a\xf9\x7f?'
p4441
tp4442
b(lp4443
g32
atp4444
s(g229
g3
(g7
S'\x14\x00\x00\x00'
p4445
tp4446
Rp4447
tp4448
(g17
(g18
(I0
tp4449
g20
tp4450
Rp4451
(I1
(I1
tp4452
g26
I00
S'<\x95~?'
p4453
tp4454
b(lp4455
g32
atp4456
s(g1702
g3
(g7
S'(\x00\x00\x00'
p4457
tp4458
Rp4459
tp4460
(g17
(g18
(I0
tp4461
g20
tp4462
Rp4463
(I1
(I1
tp4464
g26
I00
S'\xc1y\\?'
p4465
tp4466
b(lp4467
g135
atp4468
s(g1180
g3
(g7
S'K\x00\x00\x00'
p4469
tp4470
Rp4471
tp4472
(g17
(g18
(I0
tp4473
g20
tp4474
Rp4475
(I1
(I1
tp4476
g26
I00
S'\xfe\xee\x0b?'
p4477
tp4478
b(lp4479
g32
atp4480
s(g298
g3
(g7
S'K\x00\x00\x00'
p4481
tp4482
Rp4483
tp4484
(g17
(g18
(I0
tp4485
g20
tp4486
Rp4487
(I1
(I1
tp4488
g26
I00
S'\xfd\xff\x7f?'
p4489
tp4490
b(lp4491
g32
atp4492
s(g424
g3
(g7
S'K\x00\x00\x00'
p4493
tp4494
Rp4495
tp4496
(g17
(g18
(I0
tp4497
g20
tp4498
Rp4499
(I1
(I1
tp4500
g26
I00
S'\xf0\xff\x7f?'
p4501
tp4502
b(lp4503
g32
atp4504
s(g199
g3
(g7
S'P\x00\x00\x00'
p4505
tp4506
Rp4507
tp4508
(g17
(g18
(I0
tp4509
g20
tp4510
Rp4511
(I1
(I1
tp4512
g26
I00
S'~\xfb\x7f?'
p4513
tp4514
b(lp4515
g32
atp4516
s(g66
g3
(g7
S'-\x00\x00\x00'
p4517
tp4518
Rp4519
tp4520
(g17
(g18
(I0
tp4521
g20
tp4522
Rp4523
(I1
(I1
tp4524
g26
I00
S'\xa6D|?'
p4525
tp4526
b(lp4527
g32
atp4528
s(g1702
g3
(g7
S'2\x00\x00\x00'
p4529
tp4530
Rp4531
tp4532
(g17
(g18
(I0
tp4533
g20
tp4534
Rp4535
(I1
(I1
tp4536
g26
I00
S'\xda\xdaH?'
p4537
tp4538
b(lp4539
g32
atp4540
s(g271
g3
(g7
S'\n\x00\x00\x00'
p4541
tp4542
Rp4543
tp4544
(g17
(g18
(I0
tp4545
g20
tp4546
Rp4547
(I1
(I1
tp4548
g26
I00
S'\xe2\xe6\x7f?'
p4549
tp4550
b(lp4551
g32
atp4552
s(g478
g3
(g7
S'<\x00\x00\x00'
p4553
tp4554
Rp4555
tp4556
(g17
(g18
(I0
tp4557
g20
tp4558
Rp4559
(I1
(I1
tp4560
g26
I00
S'&\xed\x7f?'
p4561
tp4562
b(lp4563
g32
atp4564
s(g111
g3
(g7
S'U\x00\x00\x00'
p4565
tp4566
Rp4567
tp4568
(g17
(g18
(I0
tp4569
g20
tp4570
Rp4571
(I1
(I1
tp4572
g26
I00
S'\xf4\xff\x7f?'
p4573
tp4574
b(lp4575
g32
atp4576
s(g523
g3
(g7
S'F\x00\x00\x00'
p4577
tp4578
Rp4579
tp4580
(g17
(g18
(I0
tp4581
g20
tp4582
Rp4583
(I1
(I1
tp4584
g26
I00
S'\x00\x00\x80?'
p4585
tp4586
b(lp4587
g32
atp4588
s(g493
g3
(g7
S'\x00\x00\x00\x00'
p4589
tp4590
Rp4591
tp4592
(g17
(g18
(I0
tp4593
g20
tp4594
Rp4595
(I1
(I1
tp4596
g26
I00
S'\x9eSb?'
p4597
tp4598
b(lp4599
g32
atp4600
s(g1054
g3
(g7
S'K\x00\x00\x00'
p4601
tp4602
Rp4603
tp4604
(g17
(g18
(I0
tp4605
g20
tp4606
Rp4607
(I1
(I1
tp4608
g26
I00
S'\xf8\xff\x7f?'
p4609
tp4610
b(lp4611
g32
atp4612
s(g154
g3
(g7
S'A\x00\x00\x00'
p4613
tp4614
Rp4615
tp4616
(g17
(g18
(I0
tp4617
g20
tp4618
Rp4619
(I1
(I1
tp4620
g26
I00
S'\xfe\xff\x7f?'
p4621
tp4622
b(lp4623
g32
atp4624
s(g2536
g3
(g7
S'#\x00\x00\x00'
p4625
tp4626
Rp4627
tp4628
(g17
(g18
(I0
tp4629
g20
tp4630
Rp4631
(I1
(I1
tp4632
g26
I00
S'\xa3\xfb\x7f?'
p4633
tp4634
b(lp4635
g32
atp4636
s(g394
g3
(g7
S'\x14\x00\x00\x00'
p4637
tp4638
Rp4639
tp4640
(g17
(g18
(I0
tp4641
g20
tp4642
Rp4643
(I1
(I1
tp4644
g26
I00
S'r\xf4\x7f?'
p4645
tp4646
b(lp4647
g32
atp4648
s(g139
g3
(g7
S'\x19\x00\x00\x00'
p4649
tp4650
Rp4651
tp4652
(g17
(g18
(I0
tp4653
g20
tp4654
Rp4655
(I1
(I1
tp4656
g26
I00
S' ~\x7f?'
p4657
tp4658
b(lp4659
g32
atp4660
s(g817
g3
(g7
S'\x19\x00\x00\x00'
p4661
tp4662
Rp4663
tp4664
(g17
(g18
(I0
tp4665
g20
tp4666
Rp4667
(I1
(I1
tp4668
g26
I00
S'H\xf5~?'
p4669
tp4670
b(lp4671
g32
atp4672
s(g1054
g3
(g7
S'U\x00\x00\x00'
p4673
tp4674
Rp4675
tp4676
(g17
(g18
(I0
tp4677
g20
tp4678
Rp4679
(I1
(I1
tp4680
g26
I00
S'\xf9\xff\x7f?'
p4681
tp4682
b(lp4683
g32
atp4684
s(g1141
g3
(g7
S'\x14\x00\x00\x00'
p4685
tp4686
Rp4687
tp4688
(g17
(g18
(I0
tp4689
g20
tp4690
Rp4691
(I1
(I1
tp4692
g26
I00
S'qm}?'
p4693
tp4694
b(lp4695
g32
atp4696
s(g802
g3
(g7
S'2\x00\x00\x00'
p4697
tp4698
Rp4699
tp4700
(g17
(g18
(I0
tp4701
g20
tp4702
Rp4703
(I1
(I1
tp4704
g26
I00
S'\x92\xfc\x7f?'
p4705
tp4706
b(lp4707
g32
atp4708
s(g298
g3
(g7
S'\x05\x00\x00\x00'
p4709
tp4710
Rp4711
tp4712
(g17
(g18
(I0
tp4713
g20
tp4714
Rp4715
(I1
(I1
tp4716
g26
I00
S'\xe4\xfc\x7f?'
p4717
tp4718
b(lp4719
g32
atp4720
s(g139
g3
(g7
S'7\x00\x00\x00'
p4721
tp4722
Rp4723
tp4724
(g17
(g18
(I0
tp4725
g20
tp4726
Rp4727
(I1
(I1
tp4728
g26
I00
S'\xea ??'
p4729
tp4730
b(lp4731
g32
atp4732
s(g2065
g3
(g7
S'#\x00\x00\x00'
p4733
tp4734
Rp4735
tp4736
(g17
(g18
(I0
tp4737
g20
tp4738
Rp4739
(I1
(I1
tp4740
g26
I00
S'!\xef\x7f?'
p4741
tp4742
b(lp4743
g32
atp4744
s(g979
g3
(g7
S'\x00\x00\x00\x00'
p4745
tp4746
Rp4747
tp4748
(g17
(g18
(I0
tp4749
g20
tp4750
Rp4751
(I1
(I1
tp4752
g26
I00
S'\xf9\xf9\x7f?'
p4753
tp4754
b(lp4755
g32
atp4756
s(g256
g3
(g7
S'A\x00\x00\x00'
p4757
tp4758
Rp4759
tp4760
(g17
(g18
(I0
tp4761
g20
tp4762
Rp4763
(I1
(I1
tp4764
g26
I00
S'\x11\xfc\x7f?'
p4765
tp4766
b(lp4767
g32
atp4768
s(g697
g3
(g7
S'P\x00\x00\x00'
p4769
tp4770
Rp4771
tp4772
(g17
(g18
(I0
tp4773
g20
tp4774
Rp4775
(I1
(I1
tp4776
g26
I00
S'\xff\xff\x7f?'
p4777
tp4778
b(lp4779
g32
atp4780
s(g379
g3
(g7
S'2\x00\x00\x00'
p4781
tp4782
Rp4783
tp4784
(g17
(g18
(I0
tp4785
g20
tp4786
Rp4787
(I1
(I1
tp4788
g26
I00
S'\xbe\xc1\x1b?'
p4789
tp4790
b(lp4791
g32
atp4792
s(g298
g3
(g7
S'#\x00\x00\x00'
p4793
tp4794
Rp4795
tp4796
(g17
(g18
(I0
tp4797
g20
tp4798
Rp4799
(I1
(I1
tp4800
g26
I00
S'\x10\x83}?'
p4801
tp4802
b(lp4803
g32
atp4804
s(g1054
g3
(g7
S'\x19\x00\x00\x00'
p4805
tp4806
Rp4807
tp4808
(g17
(g18
(I0
tp4809
g20
tp4810
Rp4811
(I1
(I1
tp4812
g26
I00
S'\x18\xbf\x7f?'
p4813
tp4814
b(lp4815
g32
atp4816
s(g904
g3
(g7
S'\x14\x00\x00\x00'
p4817
tp4818
Rp4819
tp4820
(g17
(g18
(I0
tp4821
g20
tp4822
Rp4823
(I1
(I1
tp4824
g26
I00
S'vL\x7f?'
p4825
tp4826
b(lp4827
g32
atp4828
s(g66
g3
(g7
S'\n\x00\x00\x00'
p4829
tp4830
Rp4831
tp4832
(g17
(g18
(I0
tp4833
g20
tp4834
Rp4835
(I1
(I1
tp4836
g26
I00
S'M\xf4\x7f?'
p4837
tp4838
b(lp4839
g32
atp4840
s(g817
g3
(g7
S'P\x00\x00\x00'
p4841
tp4842
Rp4843
tp4844
(g17
(g18
(I0
tp4845
g20
tp4846
Rp4847
(I1
(I1
tp4848
g26
I00
S'\xe6\xfc\x7f?'
p4849
tp4850
b(lp4851
g32
atp4852
s(g493
g3
(g7
S'(\x00\x00\x00'
p4853
tp4854
Rp4855
tp4856
(g17
(g18
(I0
tp4857
g20
tp4858
Rp4859
(I1
(I1
tp4860
g26
I00
S'\xd4\xf9\x7f?'
p4861
tp4862
b(lp4863
g32
atp4864
s(g409
g3
(g7
S'A\x00\x00\x00'
p4865
tp4866
Rp4867
tp4868
(g17
(g18
(I0
tp4869
g20
tp4870
Rp4871
(I1
(I1
tp4872
g26
I00
S'\x03\xfb\x7f?'
p4873
tp4874
b(lp4875
g32
atp4876
s(g298
g3
(g7
S'P\x00\x00\x00'
p4877
tp4878
Rp4879
tp4880
(g17
(g18
(I0
tp4881
g20
tp4882
Rp4883
(I1
(I1
tp4884
g26
I00
S'\xfe\xff\x7f?'
p4885
tp4886
b(lp4887
g32
atp4888
s(g352
g3
(g7
S'7\x00\x00\x00'
p4889
tp4890
Rp4891
tp4892
(g17
(g18
(I0
tp4893
g20
tp4894
Rp4895
(I1
(I1
tp4896
g26
I00
S'\xfc\xfa\x7f?'
p4897
tp4898
b(lp4899
g32
atp4900
s(g1054
g3
(g7
S'#\x00\x00\x00'
p4901
tp4902
Rp4903
tp4904
(g17
(g18
(I0
tp4905
g20
tp4906
Rp4907
(I1
(I1
tp4908
g26
I00
S'\xe6\xf6\x7f?'
p4909
tp4910
b(lp4911
g32
atp4912
s(g51
g3
(g7
S'7\x00\x00\x00'
p4913
tp4914
Rp4915
tp4916
(g17
(g18
(I0
tp4917
g20
tp4918
Rp4919
(I1
(I1
tp4920
g26
I00
S'\x02\xe1\x7f?'
p4921
tp4922
b(lp4923
g32
atp4924
s(g81
g3
(g7
S'<\x00\x00\x00'
p4925
tp4926
Rp4927
tp4928
(g17
(g18
(I0
tp4929
g20
tp4930
Rp4931
(I1
(I1
tp4932
g26
I00
S'a\x029?'
p4933
tp4934
b(lp4935
g32
atp4936
s(g463
g3
(g7
S'U\x00\x00\x00'
p4937
tp4938
Rp4939
tp4940
(g17
(g18
(I0
tp4941
g20
tp4942
Rp4943
(I1
(I1
tp4944
g26
I00
S'\xea\xdf\x7f?'
p4945
tp4946
b(lp4947
g32
atp4948
s(g214
g3
(g7
S'#\x00\x00\x00'
p4949
tp4950
Rp4951
tp4952
(g17
(g18
(I0
tp4953
g20
tp4954
Rp4955
(I1
(I1
tp4956
g26
I00
S'\xf2\xff\x7f?'
p4957
tp4958
b(lp4959
g135
atp4960
s(g229
g3
(g7
S'K\x00\x00\x00'
p4961
tp4962
Rp4963
tp4964
(g17
(g18
(I0
tp4965
g20
tp4966
Rp4967
(I1
(I1
tp4968
g26
I00
S'\x14\xf0\x7f?'
p4969
tp4970
b(lp4971
g32
atp4972
s(g478
g3
(g7
S'7\x00\x00\x00'
p4973
tp4974
Rp4975
tp4976
(g17
(g18
(I0
tp4977
g20
tp4978
Rp4979
(I1
(I1
tp4980
g26
I00
S'Z\xdd\x7f?'
p4981
tp4982
b(lp4983
g32
atp4984
s(g256
g3
(g7
S'\x1e\x00\x00\x00'
p4985
tp4986
Rp4987
tp4988
(g17
(g18
(I0
tp4989
g20
tp4990
Rp4991
(I1
(I1
tp4992
g26
I00
S'\xd6\xa9\x7f?'
p4993
tp4994
b(lp4995
g32
atp4996
s(g96
g3
(g7
S'A\x00\x00\x00'
p4997
tp4998
Rp4999
tp5000
(g17
(g18
(I0
tp5001
g20
tp5002
Rp5003
(I1
(I1
tp5004
g26
I00
S'\x0e\xdb\x7f?'
p5005
tp5006
b(lp5007
g32
atp5008
s(g199
g3
(g7
S'#\x00\x00\x00'
p5009
tp5010
Rp5011
tp5012
(g17
(g18
(I0
tp5013
g20
tp5014
Rp5015
(I1
(I1
tp5016
g26
I00
S'\x8f\x8e\x7f?'
p5017
tp5018
b(lp5019
g32
atp5020
s(g508
g3
(g7
S'\x0f\x00\x00\x00'
p5021
tp5022
Rp5023
tp5024
(g17
(g18
(I0
tp5025
g20
tp5026
Rp5027
(I1
(I1
tp5028
g26
I00
S'\xff\xff\x7f?'
p5029
tp5030
b(lp5031
g135
atp5032
s(g352
g3
(g7
S'\x05\x00\x00\x00'
p5033
tp5034
Rp5035
tp5036
(g17
(g18
(I0
tp5037
g20
tp5038
Rp5039
(I1
(I1
tp5040
g26
I00
S'`a\x14?'
p5041
tp5042
b(lp5043
g135
atp5044
s(g271
g3
(g7
S'7\x00\x00\x00'
p5045
tp5046
Rp5047
tp5048
(g17
(g18
(I0
tp5049
g20
tp5050
Rp5051
(I1
(I1
tp5052
g26
I00
S'\xcc\xf9\x7f?'
p5053
tp5054
b(lp5055
g32
atp5056
s(g817
g3
(g7
S'-\x00\x00\x00'
p5057
tp5058
Rp5059
tp5060
(g17
(g18
(I0
tp5061
g20
tp5062
Rp5063
(I1
(I1
tp5064
g26
I00
S'\xe8\xff\x7f?'
p5065
tp5066
b(lp5067
g32
atp5068
s(g199
g3
(g7
S'\x19\x00\x00\x00'
p5069
tp5070
Rp5071
tp5072
(g17
(g18
(I0
tp5073
g20
tp5074
Rp5075
(I1
(I1
tp5076
g26
I00
S'&\xf7\x7f?'
p5077
tp5078
b(lp5079
g32
atp5080
s(g12
g3
(g7
S'-\x00\x00\x00'
p5081
tp5082
Rp5083
tp5084
(g17
(g18
(I0
tp5085
g20
tp5086
Rp5087
(I1
(I1
tp5088
g26
I00
S'M\xcb\x1a?'
p5089
tp5090
b(lp5091
g32
atp5092
s(g352
g3
(g7
S'#\x00\x00\x00'
p5093
tp5094
Rp5095
tp5096
(g17
(g18
(I0
tp5097
g20
tp5098
Rp5099
(I1
(I1
tp5100
g26
I00
S'\xbd\xae\x7f?'
p5101
tp5102
b(lp5103
g32
atp5104
s(g658
g3
(g7
S'2\x00\x00\x00'
p5105
tp5106
Rp5107
tp5108
(g17
(g18
(I0
tp5109
g20
tp5110
Rp5111
(I1
(I1
tp5112
g26
I00
S'\xe27=?'
p5113
tp5114
b(lp5115
g32
atp5116
s(g463
g3
(g7
S'(\x00\x00\x00'
p5117
tp5118
Rp5119
tp5120
(g17
(g18
(I0
tp5121
g20
tp5122
Rp5123
(I1
(I1
tp5124
g26
I00
S'1\xfe\x7f?'
p5125
tp5126
b(lp5127
g32
atp5128
s(g298
g3
(g7
S'(\x00\x00\x00'
p5129
tp5130
Rp5131
tp5132
(g17
(g18
(I0
tp5133
g20
tp5134
Rp5135
(I1
(I1
tp5136
g26
I00
S'G\x1b~?'
p5137
tp5138
b(lp5139
g135
atp5140
s(g424
g3
(g7
S'#\x00\x00\x00'
p5141
tp5142
Rp5143
tp5144
(g17
(g18
(I0
tp5145
g20
tp5146
Rp5147
(I1
(I1
tp5148
g26
I00
S'\x94\xfc\x7f?'
p5149
tp5150
b(lp5151
g32
atp5152
s(g631
g3
(g7
S'P\x00\x00\x00'
p5153
tp5154
Rp5155
tp5156
(g17
(g18
(I0
tp5157
g20
tp5158
Rp5159
(I1
(I1
tp5160
g26
I00
S'\x00\x00\x80?'
p5161
tp5162
b(lp5163
g32
atp5164
s(g463
g3
(g7
S'\x0f\x00\x00\x00'
p5165
tp5166
Rp5167
tp5168
(g17
(g18
(I0
tp5169
g20
tp5170
Rp5171
(I1
(I1
tp5172
g26
I00
S'\xed\xd1:?'
p5173
tp5174
b(lp5175
g135
atp5176
s(g727
g3
(g7
S'K\x00\x00\x00'
p5177
tp5178
Rp5179
tp5180
(g17
(g18
(I0
tp5181
g20
tp5182
Rp5183
(I1
(I1
tp5184
g26
I00
S'\x97-^?'
p5185
tp5186
b(lp5187
g135
atp5188
s(g604
g3
(g7
S'\x1e\x00\x00\x00'
p5189
tp5190
Rp5191
tp5192
(g17
(g18
(I0
tp5193
g20
tp5194
Rp5195
(I1
(I1
tp5196
g26
I00
S'5\x8cl?'
p5197
tp5198
b(lp5199
g135
atp5200
s(g493
g3
(g7
S'#\x00\x00\x00'
p5201
tp5202
Rp5203
tp5204
(g17
(g18
(I0
tp5205
g20
tp5206
Rp5207
(I1
(I1
tp5208
g26
I00
S'\xae\xfe\x7f?'
p5209
tp5210
b(lp5211
g32
atp5212
s(g508
g3
(g7
S'\x19\x00\x00\x00'
p5213
tp5214
Rp5215
tp5216
(g17
(g18
(I0
tp5217
g20
tp5218
Rp5219
(I1
(I1
tp5220
g26
I00
S'\xbf\xd4\x13?'
p5221
tp5222
b(lp5223
g135
atp5224
s(g96
g3
(g7
S'\n\x00\x00\x00'
p5225
tp5226
Rp5227
tp5228
(g17
(g18
(I0
tp5229
g20
tp5230
Rp5231
(I1
(I1
tp5232
g26
I00
S'z8|?'
p5233
tp5234
b(lp5235
g135
atp5236
s(g36
g3
(g7
S'\x14\x00\x00\x00'
p5237
tp5238
Rp5239
tp5240
(g17
(g18
(I0
tp5241
g20
tp5242
Rp5243
(I1
(I1
tp5244
g26
I00
S'\x8a\xff\x7f?'
p5245
tp5246
b(lp5247
g32
atp5248
s(g1702
g3
(g7
S'<\x00\x00\x00'
p5249
tp5250
Rp5251
tp5252
(g17
(g18
(I0
tp5253
g20
tp5254
Rp5255
(I1
(I1
tp5256
g26
I00
S' \xea\x7f?'
p5257
tp5258
b(lp5259
g32
atp5260
s(g1180
g3
(g7
S'-\x00\x00\x00'
p5261
tp5262
Rp5263
tp5264
(g17
(g18
(I0
tp5265
g20
tp5266
Rp5267
(I1
(I1
tp5268
g26
I00
S'\xb0\xe5}?'
p5269
tp5270
b(lp5271
g32
atp5272
s(g577
g3
(g7
S'<\x00\x00\x00'
p5273
tp5274
Rp5275
tp5276
(g17
(g18
(I0
tp5277
g20
tp5278
Rp5279
(I1
(I1
tp5280
g26
I00
S'\x9f\xfa\x7f?'
p5281
tp5282
b(lp5283
g32
atp5284
s(g1141
g3
(g7
S'<\x00\x00\x00'
p5285
tp5286
Rp5287
tp5288
(g17
(g18
(I0
tp5289
g20
tp5290
Rp5291
(I1
(I1
tp5292
g26
I00
S'\xae\xf9\x7f?'
p5293
tp5294
b(lp5295
g32
atp5296
s(g229
g3
(g7
S'2\x00\x00\x00'
p5297
tp5298
Rp5299
tp5300
(g17
(g18
(I0
tp5301
g20
tp5302
Rp5303
(I1
(I1
tp5304
g26
I00
S'\xbe\xff\x7f?'
p5305
tp5306
b(lp5307
g32
atp5308
s(g139
g3
(g7
S'\x0f\x00\x00\x00'
p5309
tp5310
Rp5311
tp5312
(g17
(g18
(I0
tp5313
g20
tp5314
Rp5315
(I1
(I1
tp5316
g26
I00
S'\xc1\xf4\x7f?'
p5317
tp5318
b(lp5319
g32
atp5320
s(g409
g3
(g7
S'-\x00\x00\x00'
p5321
tp5322
Rp5323
tp5324
(g17
(g18
(I0
tp5325
g20
tp5326
Rp5327
(I1
(I1
tp5328
g26
I00
S'k\xf2\x0e?'
p5329
tp5330
b(lp5331
g32
atp5332
s(g523
g3
(g7
S'\x00\x00\x00\x00'
p5333
tp5334
Rp5335
tp5336
(g17
(g18
(I0
tp5337
g20
tp5338
Rp5339
(I1
(I1
tp5340
g26
I00
S'\xa4\xe9\x7f?'
p5341
tp5342
b(lp5343
g32
atp5344
s(g337
g3
(g7
S'(\x00\x00\x00'
p5345
tp5346
Rp5347
tp5348
(g17
(g18
(I0
tp5349
g20
tp5350
Rp5351
(I1
(I1
tp5352
g26
I00
S'\xc5\xb1\x7f?'
p5353
tp5354
b(lp5355
g32
atp5356
s(g154
g3
(g7
S'U\x00\x00\x00'
p5357
tp5358
Rp5359
tp5360
(g17
(g18
(I0
tp5361
g20
tp5362
Rp5363
(I1
(I1
tp5364
g26
I00
S'\xfd\xff\x7f?'
p5365
tp5366
b(lp5367
g32
atp5368
s(g51
g3
(g7
S'<\x00\x00\x00'
p5369
tp5370
Rp5371
tp5372
(g17
(g18
(I0
tp5373
g20
tp5374
Rp5375
(I1
(I1
tp5376
g26
I00
S'{\x1d\x7f?'
p5377
tp5378
b(lp5379
g32
atp5380
s(g81
g3
(g7
S'\x0f\x00\x00\x00'
p5381
tp5382
Rp5383
tp5384
(g17
(g18
(I0
tp5385
g20
tp5386
Rp5387
(I1
(I1
tp5388
g26
I00
S'\x02\xd5\x7f?'
p5389
tp5390
b(lp5391
g32
atp5392
s(g337
g3
(g7
S'\x1e\x00\x00\x00'
p5393
tp5394
Rp5395
tp5396
(g17
(g18
(I0
tp5397
g20
tp5398
Rp5399
(I1
(I1
tp5400
g26
I00
S'\x9e\xe5}?'
p5401
tp5402
b(lp5403
g32
atp5404
s(g904
g3
(g7
S'U\x00\x00\x00'
p5405
tp5406
Rp5407
tp5408
(g17
(g18
(I0
tp5409
g20
tp5410
Rp5411
(I1
(I1
tp5412
g26
I00
S'\xf0\xe0\x7f?'
p5413
tp5414
b(lp5415
g32
atp5416
s(g508
g3
(g7
S'F\x00\x00\x00'
p5417
tp5418
Rp5419
tp5420
(g17
(g18
(I0
tp5421
g20
tp5422
Rp5423
(I1
(I1
tp5424
g26
I00
S'\x87\xf7\x7f?'
p5425
tp5426
b(lp5427
g32
atp5428
s(g36
g3
(g7
S'F\x00\x00\x00'
p5429
tp5430
Rp5431
tp5432
(g17
(g18
(I0
tp5433
g20
tp5434
Rp5435
(I1
(I1
tp5436
g26
I00
S'\xff\xff\x7f?'
p5437
tp5438
b(lp5439
g32
atp5440
s(g979
g3
(g7
S'2\x00\x00\x00'
p5441
tp5442
Rp5443
tp5444
(g17
(g18
(I0
tp5445
g20
tp5446
Rp5447
(I1
(I1
tp5448
g26
I00
S'*\x97}?'
p5449
tp5450
b(lp5451
g32
atp5452
s(g199
g3
(g7
S'(\x00\x00\x00'
p5453
tp5454
Rp5455
tp5456
(g17
(g18
(I0
tp5457
g20
tp5458
Rp5459
(I1
(I1
tp5460
g26
I00
S'\x86\xb8\x7f?'
p5461
tp5462
b(lp5463
g32
atp5464
s(g2536
g3
(g7
S'\x05\x00\x00\x00'
p5465
tp5466
Rp5467
tp5468
(g17
(g18
(I0
tp5469
g20
tp5470
Rp5471
(I1
(I1
tp5472
g26
I00
S'0\xf6\x7f?'
p5473
tp5474
b(lp5475
g32
atp5476
s(g379
g3
(g7
S'<\x00\x00\x00'
p5477
tp5478
Rp5479
tp5480
(g17
(g18
(I0
tp5481
g20
tp5482
Rp5483
(I1
(I1
tp5484
g26
I00
S'\xc2\xfa\x7f?'
p5485
tp5486
b(lp5487
g32
atp5488
s(g394
g3
(g7
S'2\x00\x00\x00'
p5489
tp5490
Rp5491
tp5492
(g17
(g18
(I0
tp5493
g20
tp5494
Rp5495
(I1
(I1
tp5496
g26
I00
S'\x10\x95=?'
p5497
tp5498
b(lp5499
g32
atp5500
s(g271
g3
(g7
S'A\x00\x00\x00'
p5501
tp5502
Rp5503
tp5504
(g17
(g18
(I0
tp5505
g20
tp5506
Rp5507
(I1
(I1
tp5508
g26
I00
S'\xff\xff\x7f?'
p5509
tp5510
b(lp5511
g32
atp5512
s(g712
g3
(g7
S'K\x00\x00\x00'
p5513
tp5514
Rp5515
tp5516
(g17
(g18
(I0
tp5517
g20
tp5518
Rp5519
(I1
(I1
tp5520
g26
I00
S'\xfc\xfd\x7f?'
p5521
tp5522
b(lp5523
g32
atp5524
s(g352
g3
(g7
S'P\x00\x00\x00'
p5525
tp5526
Rp5527
tp5528
(g17
(g18
(I0
tp5529
g20
tp5530
Rp5531
(I1
(I1
tp5532
g26
I00
S'`\xf1\x7f?'
p5533
tp5534
b(lp5535
g32
atp5536
s(g631
g3
(g7
S'K\x00\x00\x00'
p5537
tp5538
Rp5539
tp5540
(g17
(g18
(I0
tp5541
g20
tp5542
Rp5543
(I1
(I1
tp5544
g26
I00
S'\x00\x00\x80?'
p5545
tp5546
b(lp5547
g32
atp5548
s(g256
g3
(g7
S'U\x00\x00\x00'
p5549
tp5550
Rp5551
tp5552
(g17
(g18
(I0
tp5553
g20
tp5554
Rp5555
(I1
(I1
tp5556
g26
I00
S'\x8f~\x03?'
p5557
tp5558
b(lp5559
g135
atp5560
s(g478
g3
(g7
S'F\x00\x00\x00'
p5561
tp5562
Rp5563
tp5564
(g17
(g18
(I0
tp5565
g20
tp5566
Rp5567
(I1
(I1
tp5568
g26
I00
S'\xfc\xff\x7f?'
p5569
tp5570
b(lp5571
g32
atp5572
s(g562
g3
(g7
S'\n\x00\x00\x00'
p5573
tp5574
Rp5575
tp5576
(g17
(g18
(I0
tp5577
g20
tp5578
Rp5579
(I1
(I1
tp5580
g26
I00
S'0\xe0\x7f?'
p5581
tp5582
b(lp5583
g32
atp5584
s(g154
g3
(g7
S'\n\x00\x00\x00'
p5585
tp5586
Rp5587
tp5588
(g17
(g18
(I0
tp5589
g20
tp5590
Rp5591
(I1
(I1
tp5592
g26
I00
S'\xe6\xf2\x7f?'
p5593
tp5594
b(lp5595
g32
atp5596
s(g2065
g3
(g7
S'\x19\x00\x00\x00'
p5597
tp5598
Rp5599
tp5600
(g17
(g18
(I0
tp5601
g20
tp5602
Rp5603
(I1
(I1
tp5604
g26
I00
S'\x10\xfe\x7f?'
p5605
tp5606
b(lp5607
g32
atp5608
s(g424
g3
(g7
S'P\x00\x00\x00'
p5609
tp5610
Rp5611
tp5612
(g17
(g18
(I0
tp5613
g20
tp5614
Rp5615
(I1
(I1
tp5616
g26
I00
S'\xee\xff\x7f?'
p5617
tp5618
b(lp5619
g32
atp5620
s(g139
g3
(g7
S'P\x00\x00\x00'
p5621
tp5622
Rp5623
tp5624
(g17
(g18
(I0
tp5625
g20
tp5626
Rp5627
(I1
(I1
tp5628
g26
I00
S'\x01\xff\x7f?'
p5629
tp5630
b(lp5631
g32
atp5632
s(g12
g3
(g7
S'\x0f\x00\x00\x00'
p5633
tp5634
Rp5635
tp5636
(g17
(g18
(I0
tp5637
g20
tp5638
Rp5639
(I1
(I1
tp5640
g26
I00
S'\x93\xae\x7f?'
p5641
tp5642
b(lp5643
g32
atp5644
s(g379
g3
(g7
S'#\x00\x00\x00'
p5645
tp5646
Rp5647
tp5648
(g17
(g18
(I0
tp5649
g20
tp5650
Rp5651
(I1
(I1
tp5652
g26
I00
S'\x82\x9a~?'
p5653
tp5654
b(lp5655
g32
atp5656
s(g51
g3
(g7
S'(\x00\x00\x00'
p5657
tp5658
Rp5659
tp5660
(g17
(g18
(I0
tp5661
g20
tp5662
Rp5663
(I1
(I1
tp5664
g26
I00
S'Q\xfd\x7f?'
p5665
tp5666
b(lp5667
g32
atp5668
s(g1180
g3
(g7
S'2\x00\x00\x00'
p5669
tp5670
Rp5671
tp5672
(g17
(g18
(I0
tp5673
g20
tp5674
Rp5675
(I1
(I1
tp5676
g26
I00
S'\xc8!\x7f?'
p5677
tp5678
b(lp5679
g32
atp5680
s(g523
g3
(g7
S'#\x00\x00\x00'
p5681
tp5682
Rp5683
tp5684
(g17
(g18
(I0
tp5685
g20
tp5686
Rp5687
(I1
(I1
tp5688
g26
I00
S'\xdeH\x0c?'
p5689
tp5690
b(lp5691
g32
atp5692
s(g271
g3
(g7
S'\x0f\x00\x00\x00'
p5693
tp5694
Rp5695
tp5696
(g17
(g18
(I0
tp5697
g20
tp5698
Rp5699
(I1
(I1
tp5700
g26
I00
S'\xa0\xd3\x7f?'
p5701
tp5702
b(lp5703
g32
atp5704
s(g337
g3
(g7
S'P\x00\x00\x00'
p5705
tp5706
Rp5707
tp5708
(g17
(g18
(I0
tp5709
g20
tp5710
Rp5711
(I1
(I1
tp5712
g26
I00
S'\xe5\xc9z?'
p5713
tp5714
b(lp5715
g135
atp5716
s(g631
g3
(g7
S'\x19\x00\x00\x00'
p5717
tp5718
Rp5719
tp5720
(g17
(g18
(I0
tp5721
g20
tp5722
Rp5723
(I1
(I1
tp5724
g26
I00
S'.\xc97?'
p5725
tp5726
b(lp5727
g32
atp5728
s(g394
g3
(g7
S'\x19\x00\x00\x00'
p5729
tp5730
Rp5731
tp5732
(g17
(g18
(I0
tp5733
g20
tp5734
Rp5735
(I1
(I1
tp5736
g26
I00
S'\xb0\xfd\x7f?'
p5737
tp5738
b(lp5739
g32
atp5740
s(g184
g3
(g7
S'#\x00\x00\x00'
p5741
tp5742
Rp5743
tp5744
(g17
(g18
(I0
tp5745
g20
tp5746
Rp5747
(I1
(I1
tp5748
g26
I00
S'S\xfb\x0e?'
p5749
tp5750
b(lp5751
g135
atp5752
s(g493
g3
(g7
S'U\x00\x00\x00'
p5753
tp5754
Rp5755
tp5756
(g17
(g18
(I0
tp5757
g20
tp5758
Rp5759
(I1
(I1
tp5760
g26
I00
S'\x8b\xff\x7f?'
p5761
tp5762
b(lp5763
g32
atp5764
s(g979
g3
(g7
S'<\x00\x00\x00'
p5765
tp5766
Rp5767
tp5768
(g17
(g18
(I0
tp5769
g20
tp5770
Rp5771
(I1
(I1
tp5772
g26
I00
S'\xcf\xff\x7f?'
p5773
tp5774
b(lp5775
g32
atp5776
s(g979
g3
(g7
S'-\x00\x00\x00'
p5777
tp5778
Rp5779
tp5780
(g17
(g18
(I0
tp5781
g20
tp5782
Rp5783
(I1
(I1
tp5784
g26
I00
S'v5B?'
p5785
tp5786
b(lp5787
g32
atp5788
s(g577
g3
(g7
S'A\x00\x00\x00'
p5789
tp5790
Rp5791
tp5792
(g17
(g18
(I0
tp5793
g20
tp5794
Rp5795
(I1
(I1
tp5796
g26
I00
S'D\xf8\x7f?'
p5797
tp5798
b(lp5799
g32
atp5800
s(g817
g3
(g7
S'\x0f\x00\x00\x00'
p5801
tp5802
Rp5803
tp5804
(g17
(g18
(I0
tp5805
g20
tp5806
Rp5807
(I1
(I1
tp5808
g26
I00
S'B\xa8t?'
p5809
tp5810
b(lp5811
g32
atp5812
s(g379
g3
(g7
S'\x05\x00\x00\x00'
p5813
tp5814
Rp5815
tp5816
(g17
(g18
(I0
tp5817
g20
tp5818
Rp5819
(I1
(I1
tp5820
g26
I00
S'\xc1\xfc\x7f?'
p5821
tp5822
b(lp5823
g32
atp5824
s(g169
g3
(g7
S'A\x00\x00\x00'
p5825
tp5826
Rp5827
tp5828
(g17
(g18
(I0
tp5829
g20
tp5830
Rp5831
(I1
(I1
tp5832
g26
I00
S'h\x93\x7f?'
p5833
tp5834
b(lp5835
g32
atp5836
s(g12
g3
(g7
S'7\x00\x00\x00'
p5837
tp5838
Rp5839
tp5840
(g17
(g18
(I0
tp5841
g20
tp5842
Rp5843
(I1
(I1
tp5844
g26
I00
S'\x0b\xf8\x7f?'
p5845
tp5846
b(lp5847
g32
atp5848
s(g36
g3
(g7
S'<\x00\x00\x00'
p5849
tp5850
Rp5851
tp5852
(g17
(g18
(I0
tp5853
g20
tp5854
Rp5855
(I1
(I1
tp5856
g26
I00
S'\xc0\xee\x7f?'
p5857
tp5858
b(lp5859
g32
atp5860
s(g478
g3
(g7
S'A\x00\x00\x00'
p5861
tp5862
Rp5863
tp5864
(g17
(g18
(I0
tp5865
g20
tp5866
Rp5867
(I1
(I1
tp5868
g26
I00
S'\xfe\xf4\x7f?'
p5869
tp5870
b(lp5871
g32
atp5872
s(g2536
g3
(g7
S'A\x00\x00\x00'
p5873
tp5874
Rp5875
tp5876
(g17
(g18
(I0
tp5877
g20
tp5878
Rp5879
(I1
(I1
tp5880
g26
I00
S'\xa0\xff\x7f?'
p5881
tp5882
b(lp5883
g32
atp5884
s(g577
g3
(g7
S'U\x00\x00\x00'
p5885
tp5886
Rp5887
tp5888
(g17
(g18
(I0
tp5889
g20
tp5890
Rp5891
(I1
(I1
tp5892
g26
I00
S'\xb7\xfb\x7f?'
p5893
tp5894
b(lp5895
g32
atp5896
s(g1054
g3
(g7
S'\x1e\x00\x00\x00'
p5897
tp5898
Rp5899
tp5900
(g17
(g18
(I0
tp5901
g20
tp5902
Rp5903
(I1
(I1
tp5904
g26
I00
S'\xd8\xe1\x7f?'
p5905
tp5906
b(lp5907
g32
atp5908
s(g658
g3
(g7
S'\x14\x00\x00\x00'
p5909
tp5910
Rp5911
tp5912
(g17
(g18
(I0
tp5913
g20
tp5914
Rp5915
(I1
(I1
tp5916
g26
I00
S'@\xe7\x7f?'
p5917
tp5918
b(lp5919
g32
atp5920
s(g577
g3
(g7
S'\x14\x00\x00\x00'
p5921
tp5922
Rp5923
tp5924
(g17
(g18
(I0
tp5925
g20
tp5926
Rp5927
(I1
(I1
tp5928
g26
I00
S'\xf8\xf5\x7f?'
p5929
tp5930
b(lp5931
g32
atp5932
s(g604
g3
(g7
S'\x00\x00\x00\x00'
p5933
tp5934
Rp5935
tp5936
(g17
(g18
(I0
tp5937
g20
tp5938
Rp5939
(I1
(I1
tp5940
g26
I00
S'7\xc6~?'
p5941
tp5942
b(lp5943
g32
atp5944
s(g298
g3
(g7
S'U\x00\x00\x00'
p5945
tp5946
Rp5947
tp5948
(g17
(g18
(I0
tp5949
g20
tp5950
Rp5951
(I1
(I1
tp5952
g26
I00
S'\xfd\xff\x7f?'
p5953
tp5954
b(lp5955
g32
atp5956
s(g36
g3
(g7
S'\x00\x00\x00\x00'
p5957
tp5958
Rp5959
tp5960
(g17
(g18
(I0
tp5961
g20
tp5962
Rp5963
(I1
(I1
tp5964
g26
I00
S'\x11\xf4\x7f?'
p5965
tp5966
b(lp5967
g32
atp5968
s(g523
g3
(g7
S'(\x00\x00\x00'
p5969
tp5970
Rp5971
tp5972
(g17
(g18
(I0
tp5973
g20
tp5974
Rp5975
(I1
(I1
tp5976
g26
I00
S'\xa2>\x0e?'
p5977
tp5978
b(lp5979
g32
atp5980
s(g817
g3
(g7
S'\x00\x00\x00\x00'
p5981
tp5982
Rp5983
tp5984
(g17
(g18
(I0
tp5985
g20
tp5986
Rp5987
(I1
(I1
tp5988
g26
I00
S'\x8e\xff\x7f?'
p5989
tp5990
b(lp5991
g32
atp5992
s(g577
g3
(g7
S'\n\x00\x00\x00'
p5993
tp5994
Rp5995
tp5996
(g17
(g18
(I0
tp5997
g20
tp5998
Rp5999
(I1
(I1
tp6000
g26
I00
S'\x82\xeb\x7f?'
p6001
tp6002
b(lp6003
g32
atp6004
s(g802
g3
(g7
S'A\x00\x00\x00'
p6005
tp6006
Rp6007
tp6008
(g17
(g18
(I0
tp6009
g20
tp6010
Rp6011
(I1
(I1
tp6012
g26
I00
S'\xfe\xff\x7f?'
p6013
tp6014
b(lp6015
g32
atp6016
s(g81
g3
(g7
S'7\x00\x00\x00'
p6017
tp6018
Rp6019
tp6020
(g17
(g18
(I0
tp6021
g20
tp6022
Rp6023
(I1
(I1
tp6024
g26
I00
S'\xe3qF?'
p6025
tp6026
b(lp6027
g32
atp6028
s(g904
g3
(g7
S'2\x00\x00\x00'
p6029
tp6030
Rp6031
tp6032
(g17
(g18
(I0
tp6033
g20
tp6034
Rp6035
(I1
(I1
tp6036
g26
I00
S'\xe4\xff\x7f?'
p6037
tp6038
b(lp6039
g32
atp6040
s(g979
g3
(g7
S'U\x00\x00\x00'
p6041
tp6042
Rp6043
tp6044
(g17
(g18
(I0
tp6045
g20
tp6046
Rp6047
(I1
(I1
tp6048
g26
I00
S'\xfd\xff\x7f?'
p6049
tp6050
b(lp6051
g32
atp6052
s(g184
g3
(g7
S'A\x00\x00\x00'
p6053
tp6054
Rp6055
tp6056
(g17
(g18
(I0
tp6057
g20
tp6058
Rp6059
(I1
(I1
tp6060
g26
I00
S'\xd8\xe8\x7f?'
p6061
tp6062
b(lp6063
g32
atp6064
s(g2536
g3
(g7
S'\x1e\x00\x00\x00'
p6065
tp6066
Rp6067
tp6068
(g17
(g18
(I0
tp6069
g20
tp6070
Rp6071
(I1
(I1
tp6072
g26
I00
S'\xcc\xfe\x7f?'
p6073
tp6074
b(lp6075
g32
atp6076
s(g229
g3
(g7
S'F\x00\x00\x00'
p6077
tp6078
Rp6079
tp6080
(g17
(g18
(I0
tp6081
g20
tp6082
Rp6083
(I1
(I1
tp6084
g26
I00
S'\xd8\xb1\x7f?'
p6085
tp6086
b(lp6087
g32
atp6088
s(g66
g3
(g7
S'U\x00\x00\x00'
p6089
tp6090
Rp6091
tp6092
(g17
(g18
(I0
tp6093
g20
tp6094
Rp6095
(I1
(I1
tp6096
g26
I00
S'G0\x0c?'
p6097
tp6098
b(lp6099
g32
atp6100
s(g2536
g3
(g7
S'-\x00\x00\x00'
p6101
tp6102
Rp6103
tp6104
(g17
(g18
(I0
tp6105
g20
tp6106
Rp6107
(I1
(I1
tp6108
g26
I00
S'\x8e\xff\x7f?'
p6109
tp6110
b(lp6111
g32
atp6112
s(g184
g3
(g7
S'(\x00\x00\x00'
p6113
tp6114
Rp6115
tp6116
(g17
(g18
(I0
tp6117
g20
tp6118
Rp6119
(I1
(I1
tp6120
g26
I00
S'\x10\xa0{?'
p6121
tp6122
b(lp6123
g32
atp6124
s(g697
g3
(g7
S'\x1e\x00\x00\x00'
p6125
tp6126
Rp6127
tp6128
(g17
(g18
(I0
tp6129
g20
tp6130
Rp6131
(I1
(I1
tp6132
g26
I00
S'\x9f\xc7~?'
p6133
tp6134
b(lp6135
g135
atp6136
s(g2065
g3
(g7
S'P\x00\x00\x00'
p6137
tp6138
Rp6139
tp6140
(g17
(g18
(I0
tp6141
g20
tp6142
Rp6143
(I1
(I1
tp6144
g26
I00
S'`\x9a\x7f?'
p6145
tp6146
b(lp6147
g32
atp6148
s(g298
g3
(g7
S'\x19\x00\x00\x00'
p6149
tp6150
Rp6151
tp6152
(g17
(g18
(I0
tp6153
g20
tp6154
Rp6155
(I1
(I1
tp6156
g26
I00
S'M\xfe\x7f?'
p6157
tp6158
b(lp6159
g32
atp6160
s(g394
g3
(g7
S'\n\x00\x00\x00'
p6161
tp6162
Rp6163
tp6164
(g17
(g18
(I0
tp6165
g20
tp6166
Rp6167
(I1
(I1
tp6168
g26
I00
S'r\xcf\x7f?'
p6169
tp6170
b(lp6171
g32
atp6172
s(g712
g3
(g7
S'#\x00\x00\x00'
p6173
tp6174
Rp6175
tp6176
(g17
(g18
(I0
tp6177
g20
tp6178
Rp6179
(I1
(I1
tp6180
g26
I00
S'\x00\x00\x80?'
p6181
tp6182
b(lp6183
g135
atp6184
s(g523
g3
(g7
S'\x14\x00\x00\x00'
p6185
tp6186
Rp6187
tp6188
(g17
(g18
(I0
tp6189
g20
tp6190
Rp6191
(I1
(I1
tp6192
g26
I00
S'\xf5\xfc\x7f?'
p6193
tp6194
b(lp6195
g32
atp6196
s(g577
g3
(g7
S'F\x00\x00\x00'
p6197
tp6198
Rp6199
tp6200
(g17
(g18
(I0
tp6201
g20
tp6202
Rp6203
(I1
(I1
tp6204
g26
I00
S'\xa3\xff\x7f?'
p6205
tp6206
b(lp6207
g32
atp6208
s(g802
g3
(g7
S'#\x00\x00\x00'
p6209
tp6210
Rp6211
tp6212
(g17
(g18
(I0
tp6213
g20
tp6214
Rp6215
(I1
(I1
tp6216
g26
I00
S'\x00\x00\x80?'
p6217
tp6218
b(lp6219
g135
atp6220
s(g904
g3
(g7
S'\x05\x00\x00\x00'
p6221
tp6222
Rp6223
tp6224
(g17
(g18
(I0
tp6225
g20
tp6226
Rp6227
(I1
(I1
tp6228
g26
I00
S'6\xff\x7f?'
p6229
tp6230
b(lp6231
g32
atp6232
s(g271
g3
(g7
S'<\x00\x00\x00'
p6233
tp6234
Rp6235
tp6236
(g17
(g18
(I0
tp6237
g20
tp6238
Rp6239
(I1
(I1
tp6240
g26
I00
S'\xbb\xff\x7f?'
p6241
tp6242
b(lp6243
g32
atp6244
s(g562
g3
(g7
S'\x0f\x00\x00\x00'
p6245
tp6246
Rp6247
tp6248
(g17
(g18
(I0
tp6249
g20
tp6250
Rp6251
(I1
(I1
tp6252
g26
I00
S'`\xa3\x7f?'
p6253
tp6254
b(lp6255
g32
atp6256
s(g1579
g3
(g7
S'<\x00\x00\x00'
p6257
tp6258
Rp6259
tp6260
(g17
(g18
(I0
tp6261
g20
tp6262
Rp6263
(I1
(I1
tp6264
g26
I00
S'\xe3\xff\x7f?'
p6265
tp6266
b(lp6267
g32
atp6268
s(g802
g3
(g7
S'\n\x00\x00\x00'
p6269
tp6270
Rp6271
tp6272
(g17
(g18
(I0
tp6273
g20
tp6274
Rp6275
(I1
(I1
tp6276
g26
I00
S'\xc0\xfb\x7f?'
p6277
tp6278
b(lp6279
g32
atp6280
s(g298
g3
(g7
S'-\x00\x00\x00'
p6281
tp6282
Rp6283
tp6284
(g17
(g18
(I0
tp6285
g20
tp6286
Rp6287
(I1
(I1
tp6288
g26
I00
S' \xfd\x7f?'
p6289
tp6290
b(lp6291
g135
atp6292
s(g1702
g3
(g7
S'\x0f\x00\x00\x00'
p6293
tp6294
Rp6295
tp6296
(g17
(g18
(I0
tp6297
g20
tp6298
Rp6299
(I1
(I1
tp6300
g26
I00
S'\xab\xfe\x7f?'
p6301
tp6302
b(lp6303
g32
atp6304
s(g184
g3
(g7
S'\x00\x00\x00\x00'
p6305
tp6306
Rp6307
tp6308
(g17
(g18
(I0
tp6309
g20
tp6310
Rp6311
(I1
(I1
tp6312
g26
I00
S'\xa1\xfc\x7f?'
p6313
tp6314
b(lp6315
g32
atp6316
s(g139
g3
(g7
S'F\x00\x00\x00'
p6317
tp6318
Rp6319
tp6320
(g17
(g18
(I0
tp6321
g20
tp6322
Rp6323
(I1
(I1
tp6324
g26
I00
S'@\xf8\x7f?'
p6325
tp6326
b(lp6327
g32
atp6328
s(g1579
g3
(g7
S'F\x00\x00\x00'
p6329
tp6330
Rp6331
tp6332
(g17
(g18
(I0
tp6333
g20
tp6334
Rp6335
(I1
(I1
tp6336
g26
I00
S'\x93\xfe\x7f?'
p6337
tp6338
b(lp6339
g32
atp6340
s(g463
g3
(g7
S'\n\x00\x00\x00'
p6341
tp6342
Rp6343
tp6344
(g17
(g18
(I0
tp6345
g20
tp6346
Rp6347
(I1
(I1
tp6348
g26
I00
S'd\x80\x7f?'
p6349
tp6350
b(lp6351
g32
atp6352
s(g727
g3
(g7
S'(\x00\x00\x00'
p6353
tp6354
Rp6355
tp6356
(g17
(g18
(I0
tp6357
g20
tp6358
Rp6359
(I1
(I1
tp6360
g26
I00
S'@\xe0l?'
p6361
tp6362
b(lp6363
g32
atp6364
s(g154
g3
(g7
S'\x1e\x00\x00\x00'
p6365
tp6366
Rp6367
tp6368
(g17
(g18
(I0
tp6369
g20
tp6370
Rp6371
(I1
(I1
tp6372
g26
I00
S'\xd7\xca\x7f?'
p6373
tp6374
b(lp6375
g32
atp6376
s(g96
g3
(g7
S'\x0f\x00\x00\x00'
p6377
tp6378
Rp6379
tp6380
(g17
(g18
(I0
tp6381
g20
tp6382
Rp6383
(I1
(I1
tp6384
g26
I00
S'\x00\x00\x80?'
p6385
tp6386
b(lp6387
g135
atp6388
s(g604
g3
(g7
S'\x19\x00\x00\x00'
p6389
tp6390
Rp6391
tp6392
(g17
(g18
(I0
tp6393
g20
tp6394
Rp6395
(I1
(I1
tp6396
g26
I00
S'B\xc6|?'
p6397
tp6398
b(lp6399
g32
atp6400
s(g111
g3
(g7
S'\n\x00\x00\x00'
p6401
tp6402
Rp6403
tp6404
(g17
(g18
(I0
tp6405
g20
tp6406
Rp6407
(I1
(I1
tp6408
g26
I00
S'\x8f\xdc\x7f?'
p6409
tp6410
b(lp6411
g32
atp6412
s(g337
g3
(g7
S'\x14\x00\x00\x00'
p6413
tp6414
Rp6415
tp6416
(g17
(g18
(I0
tp6417
g20
tp6418
Rp6419
(I1
(I1
tp6420
g26
I00
S'\xd0\xca\x7f?'
p6421
tp6422
b(lp6423
g32
atp6424
s(g36
g3
(g7
S'\x0f\x00\x00\x00'
p6425
tp6426
Rp6427
tp6428
(g17
(g18
(I0
tp6429
g20
tp6430
Rp6431
(I1
(I1
tp6432
g26
I00
S'\x05\xff\x7f?'
p6433
tp6434
b(lp6435
g32
atp6436
s(g802
g3
(g7
S'F\x00\x00\x00'
p6437
tp6438
Rp6439
tp6440
(g17
(g18
(I0
tp6441
g20
tp6442
Rp6443
(I1
(I1
tp6444
g26
I00
S'\xf2\xff\x7f?'
p6445
tp6446
b(lp6447
g32
atp6448
s(g66
g3
(g7
S'2\x00\x00\x00'
p6449
tp6450
Rp6451
tp6452
(g17
(g18
(I0
tp6453
g20
tp6454
Rp6455
(I1
(I1
tp6456
g26
I00
S',\xfa\x7f?'
p6457
tp6458
b(lp6459
g32
atp6460
s(g562
g3
(g7
S'F\x00\x00\x00'
p6461
tp6462
Rp6463
tp6464
(g17
(g18
(I0
tp6465
g20
tp6466
Rp6467
(I1
(I1
tp6468
g26
I00
S'\xa0\x15\x7f?'
p6469
tp6470
b(lp6471
g32
atp6472
s(g337
g3
(g7
S'F\x00\x00\x00'
p6473
tp6474
Rp6475
tp6476
(g17
(g18
(I0
tp6477
g20
tp6478
Rp6479
(I1
(I1
tp6480
g26
I00
S'\x9e\xe1[?'
p6481
tp6482
b(lp6483
g32
atp6484
s(g352
g3
(g7
S'\x14\x00\x00\x00'
p6485
tp6486
Rp6487
tp6488
(g17
(g18
(I0
tp6489
g20
tp6490
Rp6491
(I1
(I1
tp6492
g26
I00
S'\xff\xfa\x7f?'
p6493
tp6494
b(lp6495
g135
atp6496
s(g523
g3
(g7
S'7\x00\x00\x00'
p6497
tp6498
Rp6499
tp6500
(g17
(g18
(I0
tp6501
g20
tp6502
Rp6503
(I1
(I1
tp6504
g26
I00
S'\xf4\xfa\x7f?'
p6505
tp6506
b(lp6507
g32
atp6508
s(g51
g3
(g7
S'\x0f\x00\x00\x00'
p6509
tp6510
Rp6511
tp6512
(g17
(g18
(I0
tp6513
g20
tp6514
Rp6515
(I1
(I1
tp6516
g26
I00
S'\x08\xb2{?'
p6517
tp6518
b(lp6519
g135
atp6520
s(g478
g3
(g7
S'\x0f\x00\x00\x00'
p6521
tp6522
Rp6523
tp6524
(g17
(g18
(I0
tp6525
g20
tp6526
Rp6527
(I1
(I1
tp6528
g26
I00
S'\xf6\xbb\x7f?'
p6529
tp6530
b(lp6531
g32
atp6532
s(g604
g3
(g7
S'-\x00\x00\x00'
p6533
tp6534
Rp6535
tp6536
(g17
(g18
(I0
tp6537
g20
tp6538
Rp6539
(I1
(I1
tp6540
g26
I00
S'\x05\x16\x12?'
p6541
tp6542
b(lp6543
g32
atp6544
s(g111
g3
(g7
S'F\x00\x00\x00'
p6545
tp6546
Rp6547
tp6548
(g17
(g18
(I0
tp6549
g20
tp6550
Rp6551
(I1
(I1
tp6552
g26
I00
S'\x00\x00\x80?'
p6553
tp6554
b(lp6555
g32
atp6556
s(g409
g3
(g7
S'(\x00\x00\x00'
p6557
tp6558
Rp6559
tp6560
(g17
(g18
(I0
tp6561
g20
tp6562
Rp6563
(I1
(I1
tp6564
g26
I00
S"p'~?"
p6565
tp6566
b(lp6567
g32
atp6568
s(g631
g3
(g7
S'-\x00\x00\x00'
p6569
tp6570
Rp6571
tp6572
(g17
(g18
(I0
tp6573
g20
tp6574
Rp6575
(I1
(I1
tp6576
g26
I00
S'\x13\xfa\n?'
p6577
tp6578
b(lp6579
g32
atp6580
s(g12
g3
(g7
S'F\x00\x00\x00'
p6581
tp6582
Rp6583
tp6584
(g17
(g18
(I0
tp6585
g20
tp6586
Rp6587
(I1
(I1
tp6588
g26
I00
S'\xfc\xff\x7f?'
p6589
tp6590
b(lp6591
g32
atp6592
s(g154
g3
(g7
S'P\x00\x00\x00'
p6593
tp6594
Rp6595
tp6596
(g17
(g18
(I0
tp6597
g20
tp6598
Rp6599
(I1
(I1
tp6600
g26
I00
S'\xf6\xff\x7f?'
p6601
tp6602
b(lp6603
g32
atp6604
s(g81
g3
(g7
S'\n\x00\x00\x00'
p6605
tp6606
Rp6607
tp6608
(g17
(g18
(I0
tp6609
g20
tp6610
Rp6611
(I1
(I1
tp6612
g26
I00
S'\xfa\xf0\x7f?'
p6613
tp6614
b(lp6615
g32
atp6616
s(g802
g3
(g7
S'-\x00\x00\x00'
p6617
tp6618
Rp6619
tp6620
(g17
(g18
(I0
tp6621
g20
tp6622
Rp6623
(I1
(I1
tp6624
g26
I00
S'\x82\xf4m?'
p6625
tp6626
b(lp6627
g32
atp6628
s(g424
g3
(g7
S'\x0f\x00\x00\x00'
p6629
tp6630
Rp6631
tp6632
(g17
(g18
(I0
tp6633
g20
tp6634
Rp6635
(I1
(I1
tp6636
g26
I00
S'X\xfd\x7f?'
p6637
tp6638
b(lp6639
g32
atp6640
s(g1141
g3
(g7
S'\x05\x00\x00\x00'
p6641
tp6642
Rp6643
tp6644
(g17
(g18
(I0
tp6645
g20
tp6646
Rp6647
(I1
(I1
tp6648
g26
I00
S'\xe0\xfc\x7f?'
p6649
tp6650
b(lp6651
g32
atp6652
s(g1579
g3
(g7
S'\n\x00\x00\x00'
p6653
tp6654
Rp6655
tp6656
(g17
(g18
(I0
tp6657
g20
tp6658
Rp6659
(I1
(I1
tp6660
g26
I00
S'`\xf9\x7f?'
p6661
tp6662
b(lp6663
g32
atp6664
s(g169
g3
(g7
S'U\x00\x00\x00'
p6665
tp6666
Rp6667
tp6668
(g17
(g18
(I0
tp6669
g20
tp6670
Rp6671
(I1
(I1
tp6672
g26
I00
S'\x13\xe3\x7f?'
p6673
tp6674
b(lp6675
g32
atp6676
s(g271
g3
(g7
S'F\x00\x00\x00'
p6677
tp6678
Rp6679
tp6680
(g17
(g18
(I0
tp6681
g20
tp6682
Rp6683
(I1
(I1
tp6684
g26
I00
S'\xff\xff\x7f?'
p6685
tp6686
b(lp6687
g32
atp6688
s(g1141
g3
(g7
S'2\x00\x00\x00'
p6689
tp6690
Rp6691
tp6692
(g17
(g18
(I0
tp6693
g20
tp6694
Rp6695
(I1
(I1
tp6696
g26
I00
S'\xe6\xff\x7f?'
p6697
tp6698
b(lp6699
g32
atp6700
s(g904
g3
(g7
S'\x00\x00\x00\x00'
p6701
tp6702
Rp6703
tp6704
(g17
(g18
(I0
tp6705
g20
tp6706
Rp6707
(I1
(I1
tp6708
g26
I00
S'\xa2\xff\x7f?'
p6709
tp6710
b(lp6711
g32
atp6712
s(g337
g3
(g7
S'\x19\x00\x00\x00'
p6713
tp6714
Rp6715
tp6716
(g17
(g18
(I0
tp6717
g20
tp6718
Rp6719
(I1
(I1
tp6720
g26
I00
S'\n\xcc}?'
p6721
tp6722
b(lp6723
g32
atp6724
s(g1054
g3
(g7
S'\x00\x00\x00\x00'
p6725
tp6726
Rp6727
tp6728
(g17
(g18
(I0
tp6729
g20
tp6730
Rp6731
(I1
(I1
tp6732
g26
I00
S'W\xfd\x7f?'
p6733
tp6734
b(lp6735
g32
atp6736
s(g36
g3
(g7
S'(\x00\x00\x00'
p6737
tp6738
Rp6739
tp6740
(g17
(g18
(I0
tp6741
g20
tp6742
Rp6743
(I1
(I1
tp6744
g26
I00
S'\xc4\xc7\x7f?'
p6745
tp6746
b(lp6747
g135
atp6748
s(g658
g3
(g7
S'\n\x00\x00\x00'
p6749
tp6750
Rp6751
tp6752
(g17
(g18
(I0
tp6753
g20
tp6754
Rp6755
(I1
(I1
tp6756
g26
I00
S'\x04\xfb\x7f?'
p6757
tp6758
b(lp6759
g32
atp6760
s(g802
g3
(g7
S'\x19\x00\x00\x00'
p6761
tp6762
Rp6763
tp6764
(g17
(g18
(I0
tp6765
g20
tp6766
Rp6767
(I1
(I1
tp6768
g26
I00
S'\x00C_?'
p6769
tp6770
b(lp6771
g135
atp6772
s(g154
g3
(g7
S'\x05\x00\x00\x00'
p6773
tp6774
Rp6775
tp6776
(g17
(g18
(I0
tp6777
g20
tp6778
Rp6779
(I1
(I1
tp6780
g26
I00
S'~\xd4\x7f?'
p6781
tp6782
b(lp6783
g32
atp6784
s(g2065
g3
(g7
S'\x1e\x00\x00\x00'
p6785
tp6786
Rp6787
tp6788
(g17
(g18
(I0
tp6789
g20
tp6790
Rp6791
(I1
(I1
tp6792
g26
I00
S'G\xfb\x7f?'
p6793
tp6794
b(lp6795
g32
atp6796
s(g139
g3
(g7
S'U\x00\x00\x00'
p6797
tp6798
Rp6799
tp6800
(g17
(g18
(I0
tp6801
g20
tp6802
Rp6803
(I1
(I1
tp6804
g26
I00
S'\xf4\xfa\x7f?'
p6805
tp6806
b(lp6807
g32
atp6808
s(g1579
g3
(g7
S'K\x00\x00\x00'
p6809
tp6810
Rp6811
tp6812
(g17
(g18
(I0
tp6813
g20
tp6814
Rp6815
(I1
(I1
tp6816
g26
I00
S'w\xb0\x7f?'
p6817
tp6818
b(lp6819
g32
atp6820
s(g298
g3
(g7
S'A\x00\x00\x00'
p6821
tp6822
Rp6823
tp6824
(g17
(g18
(I0
tp6825
g20
tp6826
Rp6827
(I1
(I1
tp6828
g26
I00
S'q\xff\x7f?'
p6829
tp6830
b(lp6831
g32
atp6832
s(g199
g3
(g7
S'F\x00\x00\x00'
p6833
tp6834
Rp6835
tp6836
(g17
(g18
(I0
tp6837
g20
tp6838
Rp6839
(I1
(I1
tp6840
g26
I00
S't\xff\x7f?'
p6841
tp6842
b(lp6843
g32
atp6844
s(g523
g3
(g7
S'<\x00\x00\x00'
p6845
tp6846
Rp6847
tp6848
(g17
(g18
(I0
tp6849
g20
tp6850
Rp6851
(I1
(I1
tp6852
g26
I00
S'\xaa\xf4\x7f?'
p6853
tp6854
b(lp6855
g32
atp6856
s(g817
g3
(g7
S'\x1e\x00\x00\x00'
p6857
tp6858
Rp6859
tp6860
(g17
(g18
(I0
tp6861
g20
tp6862
Rp6863
(I1
(I1
tp6864
g26
I00
S'\x90\xfc\x7f?'
p6865
tp6866
b(lp6867
g32
atp6868
s(g508
g3
(g7
S'\n\x00\x00\x00'
p6869
tp6870
Rp6871
tp6872
(g17
(g18
(I0
tp6873
g20
tp6874
Rp6875
(I1
(I1
tp6876
g26
I00
S'\xf5\xff\x7f?'
p6877
tp6878
b(lp6879
g135
atp6880
s(g802
g3
(g7
S'U\x00\x00\x00'
p6881
tp6882
Rp6883
tp6884
(g17
(g18
(I0
tp6885
g20
tp6886
Rp6887
(I1
(I1
tp6888
g26
I00
S'E\xfe\x7f?'
p6889
tp6890
b(lp6891
g32
atp6892
s(g256
g3
(g7
S'\x05\x00\x00\x00'
p6893
tp6894
Rp6895
tp6896
(g17
(g18
(I0
tp6897
g20
tp6898
Rp6899
(I1
(I1
tp6900
g26
I00
S'\x1a\xef\x7f?'
p6901
tp6902
b(lp6903
g32
atp6904
s(g271
g3
(g7
S'\x14\x00\x00\x00'
p6905
tp6906
Rp6907
tp6908
(g17
(g18
(I0
tp6909
g20
tp6910
Rp6911
(I1
(I1
tp6912
g26
I00
S'H\x13\x7f?'
p6913
tp6914
b(lp6915
g32
atp6916
s(g1180
g3
(g7
S'U\x00\x00\x00'
p6917
tp6918
Rp6919
tp6920
(g17
(g18
(I0
tp6921
g20
tp6922
Rp6923
(I1
(I1
tp6924
g26
I00
S'N\x90}?'
p6925
tp6926
b(lp6927
g32
atp6928
s(g409
g3
(g7
S'#\x00\x00\x00'
p6929
tp6930
Rp6931
tp6932
(g17
(g18
(I0
tp6933
g20
tp6934
Rp6935
(I1
(I1
tp6936
g26
I00
S'\xf4\xed\x7f?'
p6937
tp6938
b(lp6939
g32
atp6940
s(g214
g3
(g7
S'\x14\x00\x00\x00'
p6941
tp6942
Rp6943
tp6944
(g17
(g18
(I0
tp6945
g20
tp6946
Rp6947
(I1
(I1
tp6948
g26
I00
S'\xf8\xb1\x1f?'
p6949
tp6950
b(lp6951
g135
atp6952
s(g352
g3
(g7
S'\x1e\x00\x00\x00'
p6953
tp6954
Rp6955
tp6956
(g17
(g18
(I0
tp6957
g20
tp6958
Rp6959
(I1
(I1
tp6960
g26
I00
S'B\xe1\x7f?'
p6961
tp6962
b(lp6963
g32
atp6964
s(g66
g3
(g7
S'A\x00\x00\x00'
p6965
tp6966
Rp6967
tp6968
(g17
(g18
(I0
tp6969
g20
tp6970
Rp6971
(I1
(I1
tp6972
g26
I00
S'\x00\xf1\x7f?'
p6973
tp6974
b(lp6975
g32
atp6976
s(g2536
g3
(g7
S'\x19\x00\x00\x00'
p6977
tp6978
Rp6979
tp6980
(g17
(g18
(I0
tp6981
g20
tp6982
Rp6983
(I1
(I1
tp6984
g26
I00
S'\x06\xf8\x7f?'
p6985
tp6986
b(lp6987
g32
atp6988
s(g697
g3
(g7
S'\n\x00\x00\x00'
p6989
tp6990
Rp6991
tp6992
(g17
(g18
(I0
tp6993
g20
tp6994
Rp6995
(I1
(I1
tp6996
g26
I00
S'b\xf7\x7f?'
p6997
tp6998
b(lp6999
g32
atp7000
s(g394
g3
(g7
S'\x1e\x00\x00\x00'
p7001
tp7002
Rp7003
tp7004
(g17
(g18
(I0
tp7005
g20
tp7006
Rp7007
(I1
(I1
tp7008
g26
I00
S'(\xe3\x7f?'
p7009
tp7010
b(lp7011
g32
atp7012
s(g712
g3
(g7
S'7\x00\x00\x00'
p7013
tp7014
Rp7015
tp7016
(g17
(g18
(I0
tp7017
g20
tp7018
Rp7019
(I1
(I1
tp7020
g26
I00
S'J\xf9\x7f?'
p7021
tp7022
b(lp7023
g32
atp7024
s(g508
g3
(g7
S'K\x00\x00\x00'
p7025
tp7026
Rp7027
tp7028
(g17
(g18
(I0
tp7029
g20
tp7030
Rp7031
(I1
(I1
tp7032
g26
I00
S'@\xed\x7f?'
p7033
tp7034
b(lp7035
g32
atp7036
s(g979
g3
(g7
S'\n\x00\x00\x00'
p7037
tp7038
Rp7039
tp7040
(g17
(g18
(I0
tp7041
g20
tp7042
Rp7043
(I1
(I1
tp7044
g26
I00
S'~\xfa\x7f?'
p7045
tp7046
b(lp7047
g32
atp7048
s(g199
g3
(g7
S'A\x00\x00\x00'
p7049
tp7050
Rp7051
tp7052
(g17
(g18
(I0
tp7053
g20
tp7054
Rp7055
(I1
(I1
tp7056
g26
I00
S'\x1c\xff\x7f?'
p7057
tp7058
b(lp7059
g32
atp7060
s(g36
g3
(g7
S'7\x00\x00\x00'
p7061
tp7062
Rp7063
tp7064
(g17
(g18
(I0
tp7065
g20
tp7066
Rp7067
(I1
(I1
tp7068
g26
I00
S'!\xbc\x7f?'
p7069
tp7070
b(lp7071
g32
atp7072
s(g817
g3
(g7
S'A\x00\x00\x00'
p7073
tp7074
Rp7075
tp7076
(g17
(g18
(I0
tp7077
g20
tp7078
Rp7079
(I1
(I1
tp7080
g26
I00
S'\x10\xf8\x7f?'
p7081
tp7082
b(lp7083
g32
atp7084
s(g229
g3
(g7
S'\x0f\x00\x00\x00'
p7085
tp7086
Rp7087
tp7088
(g17
(g18
(I0
tp7089
g20
tp7090
Rp7091
(I1
(I1
tp7092
g26
I00
S'w\xc1~?'
p7093
tp7094
b(lp7095
g32
atp7096
s(g727
g3
(g7
S'P\x00\x00\x00'
p7097
tp7098
Rp7099
tp7100
(g17
(g18
(I0
tp7101
g20
tp7102
Rp7103
(I1
(I1
tp7104
g26
I00
S'\xd8xT?'
p7105
tp7106
b(lp7107
g32
atp7108
s(g802
g3
(g7
S'\x1e\x00\x00\x00'
p7109
tp7110
Rp7111
tp7112
(g17
(g18
(I0
tp7113
g20
tp7114
Rp7115
(I1
(I1
tp7116
g26
I00
S'P\xfa\x7f?'
p7117
tp7118
b(lp7119
g135
atp7120
s(g1141
g3
(g7
S'A\x00\x00\x00'
p7121
tp7122
Rp7123
tp7124
(g17
(g18
(I0
tp7125
g20
tp7126
Rp7127
(I1
(I1
tp7128
g26
I00
S'\x96\xfa\x7f?'
p7129
tp7130
b(lp7131
g32
atp7132
s(g904
g3
(g7
S'F\x00\x00\x00'
p7133
tp7134
Rp7135
tp7136
(g17
(g18
(I0
tp7137
g20
tp7138
Rp7139
(I1
(I1
tp7140
g26
I00
S'k\xf5\x7f?'
p7141
tp7142
b(lp7143
g32
atp7144
s(g2536
g3
(g7
S'K\x00\x00\x00'
p7145
tp7146
Rp7147
tp7148
(g17
(g18
(I0
tp7149
g20
tp7150
Rp7151
(I1
(I1
tp7152
g26
I00
S'\xdd\x96\x7f?'
p7153
tp7154
b(lp7155
g32
atp7156
s(g604
g3
(g7
S'A\x00\x00\x00'
p7157
tp7158
Rp7159
tp7160
(g17
(g18
(I0
tp7161
g20
tp7162
Rp7163
(I1
(I1
tp7164
g26
I00
S'\xa6p\x7f?'
p7165
tp7166
b(lp7167
g32
atp7168
s(g493
g3
(g7
S'2\x00\x00\x00'
p7169
tp7170
Rp7171
tp7172
(g17
(g18
(I0
tp7173
g20
tp7174
Rp7175
(I1
(I1
tp7176
g26
I00
S'3\xfe\x7f?'
p7177
tp7178
b(lp7179
g32
atp7180
s(g409
g3
(g7
S'K\x00\x00\x00'
p7181
tp7182
Rp7183
tp7184
(g17
(g18
(I0
tp7185
g20
tp7186
Rp7187
(I1
(I1
tp7188
g26
I00
S'\xba\xff\x7f?'
p7189
tp7190
b(lp7191
g32
atp7192
s(g604
g3
(g7
S'\x05\x00\x00\x00'
p7193
tp7194
Rp7195
tp7196
(g17
(g18
(I0
tp7197
g20
tp7198
Rp7199
(I1
(I1
tp7200
g26
I00
S'z\x81\x7f?'
p7201
tp7202
b(lp7203
g32
atp7204
s(g727
g3
(g7
S'F\x00\x00\x00'
p7205
tp7206
Rp7207
tp7208
(g17
(g18
(I0
tp7209
g20
tp7210
Rp7211
(I1
(I1
tp7212
g26
I00
S'\xe6).?'
p7213
tp7214
b(lp7215
g32
atp7216
s(g631
g3
(g7
S'\x05\x00\x00\x00'
p7217
tp7218
Rp7219
tp7220
(g17
(g18
(I0
tp7221
g20
tp7222
Rp7223
(I1
(I1
tp7224
g26
I00
S'1\xfb\x7f?'
p7225
tp7226
b(lp7227
g32
atp7228
s(g577
g3
(g7
S'7\x00\x00\x00'
p7229
tp7230
Rp7231
tp7232
(g17
(g18
(I0
tp7233
g20
tp7234
Rp7235
(I1
(I1
tp7236
g26
I00
S'L\xf1\x7f?'
p7237
tp7238
b(lp7239
g32
atp7240
s(g1141
g3
(g7
S'K\x00\x00\x00'
p7241
tp7242
Rp7243
tp7244
(g17
(g18
(I0
tp7245
g20
tp7246
Rp7247
(I1
(I1
tp7248
g26
I00
S'\xe3\xd7\x7f?'
p7249
tp7250
b(lp7251
g32
atp7252
s(g727
g3
(g7
S'#\x00\x00\x00'
p7253
tp7254
Rp7255
tp7256
(g17
(g18
(I0
tp7257
g20
tp7258
Rp7259
(I1
(I1
tp7260
g26
I00
S'\xba\xf2{?'
p7261
tp7262
b(lp7263
g32
atp7264
s(g1180
g3
(g7
S'\x0f\x00\x00\x00'
p7265
tp7266
Rp7267
tp7268
(g17
(g18
(I0
tp7269
g20
tp7270
Rp7271
(I1
(I1
tp7272
g26
I00
S'\xf1\xf9\x7f?'
p7273
tp7274
b(lp7275
g32
atp7276
s(g111
g3
(g7
S'P\x00\x00\x00'
p7277
tp7278
Rp7279
tp7280
(g17
(g18
(I0
tp7281
g20
tp7282
Rp7283
(I1
(I1
tp7284
g26
I00
S'\xff\xff\x7f?'
p7285
tp7286
b(lp7287
g32
atp7288
s(g1579
g3
(g7
S'U\x00\x00\x00'
p7289
tp7290
Rp7291
tp7292
(g17
(g18
(I0
tp7293
g20
tp7294
Rp7295
(I1
(I1
tp7296
g26
I00
S'\x18\xbf\x7f?'
p7297
tp7298
b(lp7299
g32
atp7300
s(g577
g3
(g7
S'-\x00\x00\x00'
p7301
tp7302
Rp7303
tp7304
(g17
(g18
(I0
tp7305
g20
tp7306
Rp7307
(I1
(I1
tp7308
g26
I00
S'T\x8am?'
p7309
tp7310
b(lp7311
g32
atp7312
s(g1579
g3
(g7
S'\x0f\x00\x00\x00'
p7313
tp7314
Rp7315
tp7316
(g17
(g18
(I0
tp7317
g20
tp7318
Rp7319
(I1
(I1
tp7320
g26
I00
S'"\xd6\x7f?'
p7321
tp7322
b(lp7323
g32
atp7324
s(g1141
g3
(g7
S'-\x00\x00\x00'
p7325
tp7326
Rp7327
tp7328
(g17
(g18
(I0
tp7329
g20
tp7330
Rp7331
(I1
(I1
tp7332
g26
I00
S'\xe9\xff\x7f?'
p7333
tp7334
b(lp7335
g32
atp7336
s(g184
g3
(g7
S'-\x00\x00\x00'
p7337
tp7338
Rp7339
tp7340
(g17
(g18
(I0
tp7341
g20
tp7342
Rp7343
(I1
(I1
tp7344
g26
I00
S'DS}?'
p7345
tp7346
b(lp7347
g32
atp7348
s(g727
g3
(g7
S'\x0f\x00\x00\x00'
p7349
tp7350
Rp7351
tp7352
(g17
(g18
(I0
tp7353
g20
tp7354
Rp7355
(I1
(I1
tp7356
g26
I00
S'=\xff\x7f?'
p7357
tp7358
b(lp7359
g32
atp7360
s(g2065
g3
(g7
S'U\x00\x00\x00'
p7361
tp7362
Rp7363
tp7364
(g17
(g18
(I0
tp7365
g20
tp7366
Rp7367
(I1
(I1
tp7368
g26
I00
S'N\xb7\x7f?'
p7369
tp7370
b(lp7371
g32
atp7372
s(g352
g3
(g7
S'-\x00\x00\x00'
p7373
tp7374
Rp7375
tp7376
(g17
(g18
(I0
tp7377
g20
tp7378
Rp7379
(I1
(I1
tp7380
g26
I00
S'?\xfc\x7f?'
p7381
tp7382
b(lp7383
g32
atp7384
s(g1180
g3
(g7
S'A\x00\x00\x00'
p7385
tp7386
Rp7387
tp7388
(g17
(g18
(I0
tp7389
g20
tp7390
Rp7391
(I1
(I1
tp7392
g26
I00
S'\xd6\xc1\x7f?'
p7393
tp7394
b(lp7395
g32
atp7396
s(g508
g3
(g7
S'\x00\x00\x00\x00'
p7397
tp7398
Rp7399
tp7400
(g17
(g18
(I0
tp7401
g20
tp7402
Rp7403
(I1
(I1
tp7404
g26
I00
S'\na\x7f?'
p7405
tp7406
b(lp7407
g32
atp7408
s(g817
g3
(g7
S'#\x00\x00\x00'
p7409
tp7410
Rp7411
tp7412
(g17
(g18
(I0
tp7413
g20
tp7414
Rp7415
(I1
(I1
tp7416
g26
I00
S'\xa9\xff\x7f?'
p7417
tp7418
b(lp7419
g32
atp7420
s(g199
g3
(g7
S'\x0f\x00\x00\x00'
p7421
tp7422
Rp7423
tp7424
(g17
(g18
(I0
tp7425
g20
tp7426
Rp7427
(I1
(I1
tp7428
g26
I00
S'^\xd3\x7f?'
p7429
tp7430
b(lp7431
g32
atp7432
s(g337
g3
(g7
S'\n\x00\x00\x00'
p7433
tp7434
Rp7435
tp7436
(g17
(g18
(I0
tp7437
g20
tp7438
Rp7439
(I1
(I1
tp7440
g26
I00
S'$<\x7f?'
p7441
tp7442
b(lp7443
g32
atp7444
s(g96
g3
(g7
S'<\x00\x00\x00'
p7445
tp7446
Rp7447
tp7448
(g17
(g18
(I0
tp7449
g20
tp7450
Rp7451
(I1
(I1
tp7452
g26
I00
S'\x7f\xf8\x7f?'
p7453
tp7454
b(lp7455
g32
atp7456
s(g979
g3
(g7
S'\x05\x00\x00\x00'
p7457
tp7458
Rp7459
tp7460
(g17
(g18
(I0
tp7461
g20
tp7462
Rp7463
(I1
(I1
tp7464
g26
I00
S'\x1e\xf0\x7f?'
p7465
tp7466
b(lp7467
g32
atp7468
s(g697
g3
(g7
S'U\x00\x00\x00'
p7469
tp7470
Rp7471
tp7472
(g17
(g18
(I0
tp7473
g20
tp7474
Rp7475
(I1
(I1
tp7476
g26
I00
S'\xfe\xff\x7f?'
p7477
tp7478
b(lp7479
g32
atp7480
s(g379
g3
(g7
S'-\x00\x00\x00'
p7481
tp7482
Rp7483
tp7484
(g17
(g18
(I0
tp7485
g20
tp7486
Rp7487
(I1
(I1
tp7488
g26
I00
S'u\x90~?'
p7489
tp7490
b(lp7491
g135
atp7492
s(g1702
g3
(g7
S'\n\x00\x00\x00'
p7493
tp7494
Rp7495
tp7496
(g17
(g18
(I0
tp7497
g20
tp7498
Rp7499
(I1
(I1
tp7500
g26
I00
S'$\xf5\x7f?'
p7501
tp7502
b(lp7503
g32
atp7504
s(g2065
g3
(g7
S'\x00\x00\x00\x00'
p7505
tp7506
Rp7507
tp7508
(g17
(g18
(I0
tp7509
g20
tp7510
Rp7511
(I1
(I1
tp7512
g26
I00
S'\xa9\xfe\x7f?'
p7513
tp7514
b(lp7515
g32
atp7516
s(g214
g3
(g7
S'K\x00\x00\x00'
p7517
tp7518
Rp7519
tp7520
(g17
(g18
(I0
tp7521
g20
tp7522
Rp7523
(I1
(I1
tp7524
g26
I00
S'x\xe5|?'
p7525
tp7526
b(lp7527
g32
atp7528
s(g139
g3
(g7
S'K\x00\x00\x00'
p7529
tp7530
Rp7531
tp7532
(g17
(g18
(I0
tp7533
g20
tp7534
Rp7535
(I1
(I1
tp7536
g26
I00
S'\x1e\xfe\x7f?'
p7537
tp7538
b(lp7539
g32
atp7540
s(g2536
g3
(g7
S'P\x00\x00\x00'
p7541
tp7542
Rp7543
tp7544
(g17
(g18
(I0
tp7545
g20
tp7546
Rp7547
(I1
(I1
tp7548
g26
I00
S'\x82\xf4\x7f?'
p7549
tp7550
b(lp7551
g32
atp7552
s(g66
g3
(g7
S'\x0f\x00\x00\x00'
p7553
tp7554
Rp7555
tp7556
(g17
(g18
(I0
tp7557
g20
tp7558
Rp7559
(I1
(I1
tp7560
g26
I00
S' 9~?'
p7561
tp7562
b(lp7563
g32
atp7564
s(g493
g3
(g7
S'-\x00\x00\x00'
p7565
tp7566
Rp7567
tp7568
(g17
(g18
(I0
tp7569
g20
tp7570
Rp7571
(I1
(I1
tp7572
g26
I00
S'\x05\xfc\x7f?'
p7573
tp7574
b(lp7575
g32
atp7576
s(g169
g3
(g7
S'(\x00\x00\x00'
p7577
tp7578
Rp7579
tp7580
(g17
(g18
(I0
tp7581
g20
tp7582
Rp7583
(I1
(I1
tp7584
g26
I00
S'\xe9\xff\x7f?'
p7585
tp7586
b(lp7587
g32
atp7588
s(g111
g3
(g7
S'7\x00\x00\x00'
p7589
tp7590
Rp7591
tp7592
(g17
(g18
(I0
tp7593
g20
tp7594
Rp7595
(I1
(I1
tp7596
g26
I00
S'3\xfe\x7f?'
p7597
tp7598
b(lp7599
g32
atp7600
s(g12
g3
(g7
S'<\x00\x00\x00'
p7601
tp7602
Rp7603
tp7604
(g17
(g18
(I0
tp7605
g20
tp7606
Rp7607
(I1
(I1
tp7608
g26
I00
S'\xd1\xff\x7f?'
p7609
tp7610
b(lp7611
g32
atp7612
s(g493
g3
(g7
S'K\x00\x00\x00'
p7613
tp7614
Rp7615
tp7616
(g17
(g18
(I0
tp7617
g20
tp7618
Rp7619
(I1
(I1
tp7620
g26
I00
S'x\xa0\x7f?'
p7621
tp7622
b(lp7623
g32
atp7624
s(g214
g3
(g7
S'<\x00\x00\x00'
p7625
tp7626
Rp7627
tp7628
(g17
(g18
(I0
tp7629
g20
tp7630
Rp7631
(I1
(I1
tp7632
g26
I00
S'\xdf\xff\x7f?'
p7633
tp7634
b(lp7635
g32
atp7636
s(g562
g3
(g7
S'U\x00\x00\x00'
p7637
tp7638
Rp7639
tp7640
(g17
(g18
(I0
tp7641
g20
tp7642
Rp7643
(I1
(I1
tp7644
g26
I00
S'\xf2\xf3\x7f?'
p7645
tp7646
b(lp7647
g32
atp7648
s(g337
g3
(g7
S'\x05\x00\x00\x00'
p7649
tp7650
Rp7651
tp7652
(g17
(g18
(I0
tp7653
g20
tp7654
Rp7655
(I1
(I1
tp7656
g26
I00
S'X\xe9\x7f?'
p7657
tp7658
b(lp7659
g32
atp7660
s(g904
g3
(g7
S'<\x00\x00\x00'
p7661
tp7662
Rp7663
tp7664
(g17
(g18
(I0
tp7665
g20
tp7666
Rp7667
(I1
(I1
tp7668
g26
I00
S'\xc4\xff\x7f?'
p7669
tp7670
b(lp7671
g32
atp7672
s(g337
g3
(g7
S'K\x00\x00\x00'
p7673
tp7674
Rp7675
tp7676
(g17
(g18
(I0
tp7677
g20
tp7678
Rp7679
(I1
(I1
tp7680
g26
I00
S'.D\x7f?'
p7681
tp7682
b(lp7683
g135
atp7684
s(g712
g3
(g7
S'\x0f\x00\x00\x00'
p7685
tp7686
Rp7687
tp7688
(g17
(g18
(I0
tp7689
g20
tp7690
Rp7691
(I1
(I1
tp7692
g26
I00
S'Q1{?'
p7693
tp7694
b(lp7695
g32
atp7696
s(g51
g3
(g7
S'\x14\x00\x00\x00'
p7697
tp7698
Rp7699
tp7700
(g17
(g18
(I0
tp7701
g20
tp7702
Rp7703
(I1
(I1
tp7704
g26
I00
S'>\x0c~?'
p7705
tp7706
b(lp7707
g135
atp7708
s(g256
g3
(g7
S'\x19\x00\x00\x00'
p7709
tp7710
Rp7711
tp7712
(g17
(g18
(I0
tp7713
g20
tp7714
Rp7715
(I1
(I1
tp7716
g26
I00
S'\x1e\xfe\x7f?'
p7717
tp7718
b(lp7719
g32
atp7720
s(g604
g3
(g7
S'P\x00\x00\x00'
p7721
tp7722
Rp7723
tp7724
(g17
(g18
(I0
tp7725
g20
tp7726
Rp7727
(I1
(I1
tp7728
g26
I00
S'\xbd\xfc\x7f?'
p7729
tp7730
b(lp7731
g32
atp7732
s(g1702
g3
(g7
S'A\x00\x00\x00'
p7733
tp7734
Rp7735
tp7736
(g17
(g18
(I0
tp7737
g20
tp7738
Rp7739
(I1
(I1
tp7740
g26
I00
S'\xfa\xff\x7f?'
p7741
tp7742
b(lp7743
g32
atp7744
s(g631
g3
(g7
S'(\x00\x00\x00'
p7745
tp7746
Rp7747
tp7748
(g17
(g18
(I0
tp7749
g20
tp7750
Rp7751
(I1
(I1
tp7752
g26
I00
S'*\xf7\x0f?'
p7753
tp7754
b(lp7755
g135
atp7756
s(g214
g3
(g7
S'\x00\x00\x00\x00'
p7757
tp7758
Rp7759
tp7760
(g17
(g18
(I0
tp7761
g20
tp7762
Rp7763
(I1
(I1
tp7764
g26
I00
S'\xc3\xfd\x7f?'
p7765
tp7766
b(lp7767
g32
atp7768
s(g424
g3
(g7
S'\x14\x00\x00\x00'
p7769
tp7770
Rp7771
tp7772
(g17
(g18
(I0
tp7773
g20
tp7774
Rp7775
(I1
(I1
tp7776
g26
I00
S'\xff\xf9\x7f?'
p7777
tp7778
b(lp7779
g32
atp7780
s(g12
g3
(g7
S'K\x00\x00\x00'
p7781
tp7782
Rp7783
tp7784
(g17
(g18
(I0
tp7785
g20
tp7786
Rp7787
(I1
(I1
tp7788
g26
I00
S'\xff\xff\x7f?'
p7789
tp7790
b(lp7791
g32
atp7792
s(g256
g3
(g7
S'#\x00\x00\x00'
p7793
tp7794
Rp7795
tp7796
(g17
(g18
(I0
tp7797
g20
tp7798
Rp7799
(I1
(I1
tp7800
g26
I00
S'"7t?'
p7801
tp7802
b(lp7803
g32
atp7804
s(g81
g3
(g7
S'\x05\x00\x00\x00'
p7805
tp7806
Rp7807
tp7808
(g17
(g18
(I0
tp7809
g20
tp7810
Rp7811
(I1
(I1
tp7812
g26
I00
S'hl\x7f?'
p7813
tp7814
b(lp7815
g32
atp7816
s(g817
g3
(g7
S'(\x00\x00\x00'
p7817
tp7818
Rp7819
tp7820
(g17
(g18
(I0
tp7821
g20
tp7822
Rp7823
(I1
(I1
tp7824
g26
I00
S'\xac\xff\x7f?'
p7825
tp7826
b(lp7827
g32
atp7828
s(g424
g3
(g7
S'\n\x00\x00\x00'
p7829
tp7830
Rp7831
tp7832
(g17
(g18
(I0
tp7833
g20
tp7834
Rp7835
(I1
(I1
tp7836
g26
I00
S'\xd2\xfb\x7f?'
p7837
tp7838
b(lp7839
g32
atp7840
s(g979
g3
(g7
S'(\x00\x00\x00'
p7841
tp7842
Rp7843
tp7844
(g17
(g18
(I0
tp7845
g20
tp7846
Rp7847
(I1
(I1
tp7848
g26
I00
S'\xc4Z\x18?'
p7849
tp7850
b(lp7851
g32
atp7852
s(g508
g3
(g7
S'P\x00\x00\x00'
p7853
tp7854
Rp7855
tp7856
(g17
(g18
(I0
tp7857
g20
tp7858
Rp7859
(I1
(I1
tp7860
g26
I00
S'\x94\xec\x7f?'
p7861
tp7862
b(lp7863
g32
atp7864
s(g658
g3
(g7
S'7\x00\x00\x00'
p7865
tp7866
Rp7867
tp7868
(g17
(g18
(I0
tp7869
g20
tp7870
Rp7871
(I1
(I1
tp7872
g26
I00
S'~\xb8d?'
p7873
tp7874
b(lp7875
g32
atp7876
s(g478
g3
(g7
S'-\x00\x00\x00'
p7877
tp7878
Rp7879
tp7880
(g17
(g18
(I0
tp7881
g20
tp7882
Rp7883
(I1
(I1
tp7884
g26
I00
S'\x1c\xb4\x7f?'
p7885
tp7886
b(lp7887
g135
atp7888
s(g169
g3
(g7
S'P\x00\x00\x00'
p7889
tp7890
Rp7891
tp7892
(g17
(g18
(I0
tp7893
g20
tp7894
Rp7895
(I1
(I1
tp7896
g26
I00
S'S\x8e\x7f?'
p7897
tp7898
b(lp7899
g32
atp7900
s(g271
g3
(g7
S'K\x00\x00\x00'
p7901
tp7902
Rp7903
tp7904
(g17
(g18
(I0
tp7905
g20
tp7906
Rp7907
(I1
(I1
tp7908
g26
I00
S'\xfd\xff\x7f?'
p7909
tp7910
b(lp7911
g32
atp7912
s(g352
g3
(g7
S'\n\x00\x00\x00'
p7913
tp7914
Rp7915
tp7916
(g17
(g18
(I0
tp7917
g20
tp7918
Rp7919
(I1
(I1
tp7920
g26
I00
S'\xe6\xff\x7f?'
p7921
tp7922
b(lp7923
g135
atp7924
s(g1054
g3
(g7
S'\x05\x00\x00\x00'
p7925
tp7926
Rp7927
tp7928
(g17
(g18
(I0
tp7929
g20
tp7930
Rp7931
(I1
(I1
tp7932
g26
I00
S'\x81\xff\x7f?'
p7933
tp7934
b(lp7935
g32
atp7936
s(g36
g3
(g7
S'#\x00\x00\x00'
p7937
tp7938
Rp7939
tp7940
(g17
(g18
(I0
tp7941
g20
tp7942
Rp7943
(I1
(I1
tp7944
g26
I00
S'n]~?'
p7945
tp7946
b(lp7947
g32
atp7948
s(g478
g3
(g7
S'P\x00\x00\x00'
p7949
tp7950
Rp7951
tp7952
(g17
(g18
(I0
tp7953
g20
tp7954
Rp7955
(I1
(I1
tp7956
g26
I00
S'\xfe\xff\x7f?'
p7957
tp7958
b(lp7959
g32
atp7960
s(g154
g3
(g7
S'\x00\x00\x00\x00'
p7961
tp7962
Rp7963
tp7964
(g17
(g18
(I0
tp7965
g20
tp7966
Rp7967
(I1
(I1
tp7968
g26
I00
S'\x0e\xd9\x7f?'
p7969
tp7970
b(lp7971
g32
atp7972
s(g409
g3
(g7
S'\x00\x00\x00\x00'
p7973
tp7974
Rp7975
tp7976
(g17
(g18
(I0
tp7977
g20
tp7978
Rp7979
(I1
(I1
tp7980
g26
I00
S'[\xfb\x7f?'
p7981
tp7982
b(lp7983
g32
atp7984
s(g169
g3
(g7
S'#\x00\x00\x00'
p7985
tp7986
Rp7987
tp7988
(g17
(g18
(I0
tp7989
g20
tp7990
Rp7991
(I1
(I1
tp7992
g26
I00
S'\xb0\xf7\x7f?'
p7993
tp7994
b(lp7995
g32
atp7996
s(g424
g3
(g7
S'F\x00\x00\x00'
p7997
tp7998
Rp7999
tp8000
(g17
(g18
(I0
tp8001
g20
tp8002
Rp8003
(I1
(I1
tp8004
g26
I00
S'\xf7\xff\x7f?'
p8005
tp8006
b(lp8007
g32
atp8008
s(g229
g3
(g7
S'-\x00\x00\x00'
p8009
tp8010
Rp8011
tp8012
(g17
(g18
(I0
tp8013
g20
tp8014
Rp8015
(I1
(I1
tp8016
g26
I00
S'\xf8\xff\x7f?'
p8017
tp8018
b(lp8019
g32
atp8020
s(g577
g3
(g7
S'\x05\x00\x00\x00'
p8021
tp8022
Rp8023
tp8024
(g17
(g18
(I0
tp8025
g20
tp8026
Rp8027
(I1
(I1
tp8028
g26
I00
S'\xe9\xef\x7f?'
p8029
tp8030
b(lp8031
g32
atp8032
s(g1141
g3
(g7
S'U\x00\x00\x00'
p8033
tp8034
Rp8035
tp8036
(g17
(g18
(I0
tp8037
g20
tp8038
Rp8039
(I1
(I1
tp8040
g26
I00
S'\xeb\xd2\x7f?'
p8041
tp8042
b(lp8043
g32
atp8044
s(g478
g3
(g7
S'#\x00\x00\x00'
p8045
tp8046
Rp8047
tp8048
(g17
(g18
(I0
tp8049
g20
tp8050
Rp8051
(I1
(I1
tp8052
g26
I00
S'v\xaa\x7f?'
p8053
tp8054
b(lp8055
g32
atp8056
s(g169
g3
(g7
S'\x05\x00\x00\x00'
p8057
tp8058
Rp8059
tp8060
(g17
(g18
(I0
tp8061
g20
tp8062
Rp8063
(I1
(I1
tp8064
g26
I00
S'11\x03?'
p8065
tp8066
b(lp8067
g32
atp8068
s(g1180
g3
(g7
S'(\x00\x00\x00'
p8069
tp8070
Rp8071
tp8072
(g17
(g18
(I0
tp8073
g20
tp8074
Rp8075
(I1
(I1
tp8076
g26
I00
S'*/s?'
p8077
tp8078
b(lp8079
g32
atp8080
s(g658
g3
(g7
S'A\x00\x00\x00'
p8081
tp8082
Rp8083
tp8084
(g17
(g18
(I0
tp8085
g20
tp8086
Rp8087
(I1
(I1
tp8088
g26
I00
S'M\xfc\x7f?'
p8089
tp8090
b(lp8091
g32
atp8092
s(g271
g3
(g7
S'\x19\x00\x00\x00'
p8093
tp8094
Rp8095
tp8096
(g17
(g18
(I0
tp8097
g20
tp8098
Rp8099
(I1
(I1
tp8100
g26
I00
S'~\xd3\x7f?'
p8101
tp8102
b(lp8103
g32
atp8104
s(g727
g3
(g7
S'\x19\x00\x00\x00'
p8105
tp8106
Rp8107
tp8108
(g17
(g18
(I0
tp8109
g20
tp8110
Rp8111
(I1
(I1
tp8112
g26
I00
S'\xe8\xf1\x7f?'
p8113
tp8114
b(lp8115
g32
atp8116
s(g562
g3
(g7
S'-\x00\x00\x00'
p8117
tp8118
Rp8119
tp8120
(g17
(g18
(I0
tp8121
g20
tp8122
Rp8123
(I1
(I1
tp8124
g26
I00
S',@~?'
p8125
tp8126
b(lp8127
g32
atp8128
s(g631
g3
(g7
S'#\x00\x00\x00'
p8129
tp8130
Rp8131
tp8132
(g17
(g18
(I0
tp8133
g20
tp8134
Rp8135
(I1
(I1
tp8136
g26
I00
S'\xf5\xff\x7f?'
p8137
tp8138
b(lp8139
g135
atp8140
s(g463
g3
(g7
S'-\x00\x00\x00'
p8141
tp8142
Rp8143
tp8144
(g17
(g18
(I0
tp8145
g20
tp8146
Rp8147
(I1
(I1
tp8148
g26
I00
S'\xda\xff\x7f?'
p8149
tp8150
b(lp8151
g32
atp8152
s(g139
g3
(g7
S'(\x00\x00\x00'
p8153
tp8154
Rp8155
tp8156
(g17
(g18
(I0
tp8157
g20
tp8158
Rp8159
(I1
(I1
tp8160
g26
I00
S'"5\x12?'
p8161
tp8162
b(lp8163
g135
atp8164
s(g712
g3
(g7
S'2\x00\x00\x00'
p8165
tp8166
Rp8167
tp8168
(g17
(g18
(I0
tp8169
g20
tp8170
Rp8171
(I1
(I1
tp8172
g26
I00
S'\x12\xf7\x7f?'
p8173
tp8174
b(lp8175
g32
atp8176
s(g2065
g3
(g7
S'(\x00\x00\x00'
p8177
tp8178
Rp8179
tp8180
(g17
(g18
(I0
tp8181
g20
tp8182
Rp8183
(I1
(I1
tp8184
g26
I00
S'F\xfd\x7f?'
p8185
tp8186
b(lp8187
g32
atp8188
s(g979
g3
(g7
S'7\x00\x00\x00'
p8189
tp8190
Rp8191
tp8192
(g17
(g18
(I0
tp8193
g20
tp8194
Rp8195
(I1
(I1
tp8196
g26
I00
S'Q\xf9\x7f?'
p8197
tp8198
b(lp8199
g32
atp8200
s(g51
g3
(g7
S'A\x00\x00\x00'
p8201
tp8202
Rp8203
tp8204
(g17
(g18
(I0
tp8205
g20
tp8206
Rp8207
(I1
(I1
tp8208
g26
I00
S'@\xf5\x7f?'
p8209
tp8210
b(lp8211
g32
atp8212
s(g1180
g3
(g7
S'#\x00\x00\x00'
p8213
tp8214
Rp8215
tp8216
(g17
(g18
(I0
tp8217
g20
tp8218
Rp8219
(I1
(I1
tp8220
g26
I00
S'\xd8\xd3w?'
p8221
tp8222
b(lp8223
g135
atp8224
s(g802
g3
(g7
S'\x05\x00\x00\x00'
p8225
tp8226
Rp8227
tp8228
(g17
(g18
(I0
tp8229
g20
tp8230
Rp8231
(I1
(I1
tp8232
g26
I00
S'D\xee\x7f?'
p8233
tp8234
b(lp8235
g32
atp8236
s(g169
g3
(g7
S'K\x00\x00\x00'
p8237
tp8238
Rp8239
tp8240
(g17
(g18
(I0
tp8241
g20
tp8242
Rp8243
(I1
(I1
tp8244
g26
I00
S'\x8fk\x7f?'
p8245
tp8246
b(lp8247
g32
atp8248
s(g817
g3
(g7
S'7\x00\x00\x00'
p8249
tp8250
Rp8251
tp8252
(g17
(g18
(I0
tp8253
g20
tp8254
Rp8255
(I1
(I1
tp8256
g26
I00
S'X\xf9\x7f?'
p8257
tp8258
b(lp8259
g32
atp8260
s(g493
g3
(g7
S'\x05\x00\x00\x00'
p8261
tp8262
Rp8263
tp8264
(g17
(g18
(I0
tp8265
g20
tp8266
Rp8267
(I1
(I1
tp8268
g26
I00
S'\xd09~?'
p8269
tp8270
b(lp8271
g32
atp8272
s(g2065
g3
(g7
S'2\x00\x00\x00'
p8273
tp8274
Rp8275
tp8276
(g17
(g18
(I0
tp8277
g20
tp8278
Rp8279
(I1
(I1
tp8280
g26
I00
S'`\xff\x7f?'
p8281
tp8282
b(lp8283
g32
atp8284
s(g523
g3
(g7
S'K\x00\x00\x00'
p8285
tp8286
Rp8287
tp8288
(g17
(g18
(I0
tp8289
g20
tp8290
Rp8291
(I1
(I1
tp8292
g26
I00
S'\xf2\xff\x7f?'
p8293
tp8294
b(lp8295
g32
atp8296
s(g12
g3
(g7
S'\x14\x00\x00\x00'
p8297
tp8298
Rp8299
tp8300
(g17
(g18
(I0
tp8301
g20
tp8302
Rp8303
(I1
(I1
tp8304
g26
I00
S'_Dm?'
p8305
tp8306
b(lp8307
g32
atp8308
s(g256
g3
(g7
S'P\x00\x00\x00'
p8309
tp8310
Rp8311
tp8312
(g17
(g18
(I0
tp8313
g20
tp8314
Rp8315
(I1
(I1
tp8316
g26
I00
S')\xd9\r?'
p8317
tp8318
b(lp8319
g32
atp8320
s(g229
g3
(g7
S'\n\x00\x00\x00'
p8321
tp8322
Rp8323
tp8324
(g17
(g18
(I0
tp8325
g20
tp8326
Rp8327
(I1
(I1
tp8328
g26
I00
S'\x7f\xe3\x7f?'
p8329
tp8330
b(lp8331
g32
atp8332
s(g697
g3
(g7
S'A\x00\x00\x00'
p8333
tp8334
Rp8335
tp8336
(g17
(g18
(I0
tp8337
g20
tp8338
Rp8339
(I1
(I1
tp8340
g26
I00
S'\x00\x00\x80?'
p8341
tp8342
b(lp8343
g32
atp8344
s(g1702
g3
(g7
S'\x1e\x00\x00\x00'
p8345
tp8346
Rp8347
tp8348
(g17
(g18
(I0
tp8349
g20
tp8350
Rp8351
(I1
(I1
tp8352
g26
I00
S'F\xeb\x7f?'
p8353
tp8354
b(lp8355
g32
atp8356
s(g1054
g3
(g7
S'(\x00\x00\x00'
p8357
tp8358
Rp8359
tp8360
(g17
(g18
(I0
tp8361
g20
tp8362
Rp8363
(I1
(I1
tp8364
g26
I00
S'\x90=\x7f?'
p8365
tp8366
b(lp8367
g32
atp8368
s(g463
g3
(g7
S'\x19\x00\x00\x00'
p8369
tp8370
Rp8371
tp8372
(g17
(g18
(I0
tp8373
g20
tp8374
Rp8375
(I1
(I1
tp8376
g26
I00
S'\x04\xf1z?'
p8377
tp8378
b(lp8379
g32
atp8380
s(g379
g3
(g7
S'K\x00\x00\x00'
p8381
tp8382
Rp8383
tp8384
(g17
(g18
(I0
tp8385
g20
tp8386
Rp8387
(I1
(I1
tp8388
g26
I00
S'\xff\xff\x7f?'
p8389
tp8390
b(lp8391
g32
atp8392
s(g154
g3
(g7
S'-\x00\x00\x00'
p8393
tp8394
Rp8395
tp8396
(g17
(g18
(I0
tp8397
g20
tp8398
Rp8399
(I1
(I1
tp8400
g26
I00
S'\xad\x98\x7f?'
p8401
tp8402
b(lp8403
g32
atp8404
s(g478
g3
(g7
S'(\x00\x00\x00'
p8405
tp8406
Rp8407
tp8408
(g17
(g18
(I0
tp8409
g20
tp8410
Rp8411
(I1
(I1
tp8412
g26
I00
S'\x99\x1bv?'
p8413
tp8414
b(lp8415
g135
atp8416
s(g96
g3
(g7
S'(\x00\x00\x00'
p8417
tp8418
Rp8419
tp8420
(g17
(g18
(I0
tp8421
g20
tp8422
Rp8423
(I1
(I1
tp8424
g26
I00
S'\x92\xfb\x7f?'
p8425
tp8426
b(lp8427
g32
atp8428
s(g1054
g3
(g7
S'2\x00\x00\x00'
p8429
tp8430
Rp8431
tp8432
(g17
(g18
(I0
tp8433
g20
tp8434
Rp8435
(I1
(I1
tp8436
g26
I00
S'\xa8\x11\x7f?'
p8437
tp8438
b(lp8439
g32
atp8440
s(g631
g3
(g7
S'\x00\x00\x00\x00'
p8441
tp8442
Rp8443
tp8444
(g17
(g18
(I0
tp8445
g20
tp8446
Rp8447
(I1
(I1
tp8448
g26
I00
S'U\xff\x7f?'
p8449
tp8450
b(lp8451
g32
atp8452
s(g214
g3
(g7
S'(\x00\x00\x00'
p8453
tp8454
Rp8455
tp8456
(g17
(g18
(I0
tp8457
g20
tp8458
Rp8459
(I1
(I1
tp8460
g26
I00
S'h\x01\x12?'
p8461
tp8462
b(lp8463
g135
atp8464
s(g562
g3
(g7
S'A\x00\x00\x00'
p8465
tp8466
Rp8467
tp8468
(g17
(g18
(I0
tp8469
g20
tp8470
Rp8471
(I1
(I1
tp8472
g26
I00
S"\xce'\x7f?"
p8473
tp8474
b(lp8475
g32
atp8476
s(g81
g3
(g7
S'-\x00\x00\x00'
p8477
tp8478
Rp8479
tp8480
(g17
(g18
(I0
tp8481
g20
tp8482
Rp8483
(I1
(I1
tp8484
g26
I00
S'40\x7f?'
p8485
tp8486
b(lp8487
g32
atp8488
s(g904
g3
(g7
S'(\x00\x00\x00'
p8489
tp8490
Rp8491
tp8492
(g17
(g18
(I0
tp8493
g20
tp8494
Rp8495
(I1
(I1
tp8496
g26
I00
S'\x96\xff\x7f?'
p8497
tp8498
b(lp8499
g32
atp8500
s(g337
g3
(g7
S'U\x00\x00\x00'
p8501
tp8502
Rp8503
tp8504
(g17
(g18
(I0
tp8505
g20
tp8506
Rp8507
(I1
(I1
tp8508
g26
I00
S'\xf6;c?'
p8509
tp8510
b(lp8511
g135
atp8512
s(g904
g3
(g7
S'\n\x00\x00\x00'
p8513
tp8514
Rp8515
tp8516
(g17
(g18
(I0
tp8517
g20
tp8518
Rp8519
(I1
(I1
tp8520
g26
I00
S'\x1b\xfc\x7f?'
p8521
tp8522
b(lp8523
g32
atp8524
s(g256
g3
(g7
S'-\x00\x00\x00'
p8525
tp8526
Rp8527
tp8528
(g17
(g18
(I0
tp8529
g20
tp8530
Rp8531
(I1
(I1
tp8532
g26
I00
S'\x97\xab\x7f?'
p8533
tp8534
b(lp8535
g32
atp8536
s(g478
g3
(g7
S'\x1e\x00\x00\x00'
p8537
tp8538
Rp8539
tp8540
(g17
(g18
(I0
tp8541
g20
tp8542
Rp8543
(I1
(I1
tp8544
g26
I00
S'\xbe#{?'
p8545
tp8546
b(lp8547
g32
atp8548
s(g379
g3
(g7
S'\x1e\x00\x00\x00'
p8549
tp8550
Rp8551
tp8552
(g17
(g18
(I0
tp8553
g20
tp8554
Rp8555
(I1
(I1
tp8556
g26
I00
S'\xb1\xf8\x7f?'
p8557
tp8558
b(lp8559
g32
atp8560
s(g1702
g3
(g7
S'U\x00\x00\x00'
p8561
tp8562
Rp8563
tp8564
(g17
(g18
(I0
tp8565
g20
tp8566
Rp8567
(I1
(I1
tp8568
g26
I00
S'\xfb\xff\x7f?'
p8569
tp8570
b(lp8571
g32
atp8572
s(g199
g3
(g7
S'\x14\x00\x00\x00'
p8573
tp8574
Rp8575
tp8576
(g17
(g18
(I0
tp8577
g20
tp8578
Rp8579
(I1
(I1
tp8580
g26
I00
S'v\xf4\x7f?'
p8581
tp8582
b(lp8583
g32
atp8584
s(g631
g3
(g7
S'<\x00\x00\x00'
p8585
tp8586
Rp8587
tp8588
(g17
(g18
(I0
tp8589
g20
tp8590
Rp8591
(I1
(I1
tp8592
g26
I00
S'\xf7\xff\x7f?'
p8593
tp8594
b(lp8595
g32
atp8596
s(g96
g3
(g7
S'-\x00\x00\x00'
p8597
tp8598
Rp8599
tp8600
(g17
(g18
(I0
tp8601
g20
tp8602
Rp8603
(I1
(I1
tp8604
g26
I00
S'\x11\xfe\x7f?'
p8605
tp8606
b(lp8607
g32
atp8608
s(g256
g3
(g7
S'7\x00\x00\x00'
p8609
tp8610
Rp8611
tp8612
(g17
(g18
(I0
tp8613
g20
tp8614
Rp8615
(I1
(I1
tp8616
g26
I00
S'~\xef\x7f?'
p8617
tp8618
b(lp8619
g32
atp8620
s(g379
g3
(g7
S'\x00\x00\x00\x00'
p8621
tp8622
Rp8623
tp8624
(g17
(g18
(I0
tp8625
g20
tp8626
Rp8627
(I1
(I1
tp8628
g26
I00
S'\xf2\xfb\x7f?'
p8629
tp8630
b(lp8631
g32
atp8632
s(g817
g3
(g7
S'<\x00\x00\x00'
p8633
tp8634
Rp8635
tp8636
(g17
(g18
(I0
tp8637
g20
tp8638
Rp8639
(I1
(I1
tp8640
g26
I00
S'.\xfb\x7f?'
p8641
tp8642
b(lp8643
g32
atp8644
s(g199
g3
(g7
S'\n\x00\x00\x00'
p8645
tp8646
Rp8647
tp8648
(g17
(g18
(I0
tp8649
g20
tp8650
Rp8651
(I1
(I1
tp8652
g26
I00
S'\\\xdf\x7f?'
p8653
tp8654
b(lp8655
g32
atp8656
s(g508
g3
(g7
S'<\x00\x00\x00'
p8657
tp8658
Rp8659
tp8660
(g17
(g18
(I0
tp8661
g20
tp8662
Rp8663
(I1
(I1
tp8664
g26
I00
S'\xd0\xb3\x7f?'
p8665
tp8666
b(lp8667
g32
atp8668
s(g352
g3
(g7
S'U\x00\x00\x00'
p8669
tp8670
Rp8671
tp8672
(g17
(g18
(I0
tp8673
g20
tp8674
Rp8675
(I1
(I1
tp8676
g26
I00
S')\xff\x7f?'
p8677
tp8678
b(lp8679
g32
atp8680
s(g2065
g3
(g7
S'\x05\x00\x00\x00'
p8681
tp8682
Rp8683
tp8684
(g17
(g18
(I0
tp8685
g20
tp8686
Rp8687
(I1
(I1
tp8688
g26
I00
S'\xd0\xe4\x7f?'
p8689
tp8690
b(lp8691
g32
atp8692
s(g352
g3
(g7
S'2\x00\x00\x00'
p8693
tp8694
Rp8695
tp8696
(g17
(g18
(I0
tp8697
g20
tp8698
Rp8699
(I1
(I1
tp8700
g26
I00
S'\x19\xfd\x7f?'
p8701
tp8702
b(lp8703
g32
atp8704
s(g1579
g3
(g7
S'P\x00\x00\x00'
p8705
tp8706
Rp8707
tp8708
(g17
(g18
(I0
tp8709
g20
tp8710
Rp8711
(I1
(I1
tp8712
g26
I00
S'\xbc\xeb\x7f?'
p8713
tp8714
b(lp8715
g32
atp8716
s(g2536
g3
(g7
S'U\x00\x00\x00'
p8717
tp8718
Rp8719
tp8720
(g17
(g18
(I0
tp8721
g20
tp8722
Rp8723
(I1
(I1
tp8724
g26
I00
S'\xee\xca\x7f?'
p8725
tp8726
b(lp8727
g32
atp8728
s(g658
g3
(g7
S'\x19\x00\x00\x00'
p8729
tp8730
Rp8731
tp8732
(g17
(g18
(I0
tp8733
g20
tp8734
Rp8735
(I1
(I1
tp8736
g26
I00
S'\xbc\xf5\x7f?'
p8737
tp8738
b(lp8739
g32
atp8740
s(g154
g3
(g7
S'\x14\x00\x00\x00'
p8741
tp8742
Rp8743
tp8744
(g17
(g18
(I0
tp8745
g20
tp8746
Rp8747
(I1
(I1
tp8748
g26
I00
S'\xc2\xee\x7f?'
p8749
tp8750
b(lp8751
g32
atp8752
s(g169
g3
(g7
S'7\x00\x00\x00'
p8753
tp8754
Rp8755
tp8756
(g17
(g18
(I0
tp8757
g20
tp8758
Rp8759
(I1
(I1
tp8760
g26
I00
S'"\xee\x7f?'
p8761
tp8762
b(lp8763
g32
atp8764
s(g111
g3
(g7
S'<\x00\x00\x00'
p8765
tp8766
Rp8767
tp8768
(g17
(g18
(I0
tp8769
g20
tp8770
Rp8771
(I1
(I1
tp8772
g26
I00
S'\xf5\xff\x7f?'
p8773
tp8774
b(lp8775
g32
atp8776
s(g36
g3
(g7
S'\x05\x00\x00\x00'
p8777
tp8778
Rp8779
tp8780
(g17
(g18
(I0
tp8781
g20
tp8782
Rp8783
(I1
(I1
tp8784
g26
I00
S'\xa2\xfc\x7f?'
p8785
tp8786
b(lp8787
g32
atp8788
s(g478
g3
(g7
S'2\x00\x00\x00'
p8789
tp8790
Rp8791
tp8792
(g17
(g18
(I0
tp8793
g20
tp8794
Rp8795
(I1
(I1
tp8796
g26
I00
S'\xdc\x01X?'
p8797
tp8798
b(lp8799
g32
atp8800
s(g508
g3
(g7
S'A\x00\x00\x00'
p8801
tp8802
Rp8803
tp8804
(g17
(g18
(I0
tp8805
g20
tp8806
Rp8807
(I1
(I1
tp8808
g26
I00
S'\x04\xf9\x7f?'
p8809
tp8810
b(lp8811
g32
atp8812
s(g904
g3
(g7
S'7\x00\x00\x00'
p8813
tp8814
Rp8815
tp8816
(g17
(g18
(I0
tp8817
g20
tp8818
Rp8819
(I1
(I1
tp8820
g26
I00
S'\x98\xff\x7f?'
p8821
tp8822
b(lp8823
g32
atp8824
s(g139
g3
(g7
S'\x00\x00\x00\x00'
p8825
tp8826
Rp8827
tp8828
(g17
(g18
(I0
tp8829
g20
tp8830
Rp8831
(I1
(I1
tp8832
g26
I00
S'\xa0\xeb\x7f?'
p8833
tp8834
b(lp8835
g32
atp8836
s(g712
g3
(g7
S'\n\x00\x00\x00'
p8837
tp8838
Rp8839
tp8840
(g17
(g18
(I0
tp8841
g20
tp8842
Rp8843
(I1
(I1
tp8844
g26
I00
S'\xb8\xf7\x7f?'
p8845
tp8846
b(lp8847
g32
atp8848
s(g51
g3
(g7
S'\x19\x00\x00\x00'
p8849
tp8850
Rp8851
tp8852
(g17
(g18
(I0
tp8853
g20
tp8854
Rp8855
(I1
(I1
tp8856
g26
I00
S'\x83hy?'
p8857
tp8858
b(lp8859
g32
atp8860
s(g478
g3
(g7
S'\x19\x00\x00\x00'
p8861
tp8862
Rp8863
tp8864
(g17
(g18
(I0
tp8865
g20
tp8866
Rp8867
(I1
(I1
tp8868
g26
I00
S'2\x9d\x7f?'
p8869
tp8870
b(lp8871
g32
atp8872
s(g139
g3
(g7
S'\x1e\x00\x00\x00'
p8873
tp8874
Rp8875
tp8876
(g17
(g18
(I0
tp8877
g20
tp8878
Rp8879
(I1
(I1
tp8880
g26
I00
S'F\xf5\x07?'
p8881
tp8882
b(lp8883
g135
atp8884
s(g562
g3
(g7
S'2\x00\x00\x00'
p8885
tp8886
Rp8887
tp8888
(g17
(g18
(I0
tp8889
g20
tp8890
Rp8891
(I1
(I1
tp8892
g26
I00
S'\xab\xc3\x04?'
p8893
tp8894
b(lp8895
g135
atp8896
s(g631
g3
(g7
S'7\x00\x00\x00'
p8897
tp8898
Rp8899
tp8900
(g17
(g18
(I0
tp8901
g20
tp8902
Rp8903
(I1
(I1
tp8904
g26
I00
S'l\xff\x7f?'
p8905
tp8906
b(lp8907
g32
atp8908
s(g12
g3
(g7
S'2\x00\x00\x00'
p8909
tp8910
Rp8911
tp8912
(g17
(g18
(I0
tp8913
g20
tp8914
Rp8915
(I1
(I1
tp8916
g26
I00
S'\x12M~?'
p8917
tp8918
b(lp8919
g32
atp8920
s(g337
g3
(g7
S'#\x00\x00\x00'
p8921
tp8922
Rp8923
tp8924
(g17
(g18
(I0
tp8925
g20
tp8926
Rp8927
(I1
(I1
tp8928
g26
I00
S'\xee\x01y?'
p8929
tp8930
b(lp8931
g32
atp8932
s(g2536
g3
(g7
S'(\x00\x00\x00'
p8933
tp8934
Rp8935
tp8936
(g17
(g18
(I0
tp8937
g20
tp8938
Rp8939
(I1
(I1
tp8940
g26
I00
S'\xbd\xff\x7f?'
p8941
tp8942
b(lp8943
g32
atp8944
s(g81
g3
(g7
S'\x00\x00\x00\x00'
p8945
tp8946
Rp8947
tp8948
(g17
(g18
(I0
tp8949
g20
tp8950
Rp8951
(I1
(I1
tp8952
g26
I00
S'\xf7\xe4\x7f?'
p8953
tp8954
b(lp8955
g32
atp8956
s(g1180
g3
(g7
S'\x00\x00\x00\x00'
p8957
tp8958
Rp8959
tp8960
(g17
(g18
(I0
tp8961
g20
tp8962
Rp8963
(I1
(I1
tp8964
g26
I00
S'B\xf8\x7f?'
p8965
tp8966
b(lp8967
g32
atp8968
s(g139
g3
(g7
S'\x05\x00\x00\x00'
p8969
tp8970
Rp8971
tp8972
(g17
(g18
(I0
tp8973
g20
tp8974
Rp8975
(I1
(I1
tp8976
g26
I00
S'\xbc\x9b\x7f?'
p8977
tp8978
b(lp8979
g32
atp8980
s(g712
g3
(g7
S'F\x00\x00\x00'
p8981
tp8982
Rp8983
tp8984
(g17
(g18
(I0
tp8985
g20
tp8986
Rp8987
(I1
(I1
tp8988
g26
I00
S'\xaf\xff\x7f?'
p8989
tp8990
b(lp8991
g32
atp8992
s(g631
g3
(g7
S'F\x00\x00\x00'
p8993
tp8994
Rp8995
tp8996
(g17
(g18
(I0
tp8997
g20
tp8998
Rp8999
(I1
(I1
tp9000
g26
I00
S'\x00\x00\x80?'
p9001
tp9002
b(lp9003
g32
atp9004
s(g394
g3
(g7
S'A\x00\x00\x00'
p9005
tp9006
Rp9007
tp9008
(g17
(g18
(I0
tp9009
g20
tp9010
Rp9011
(I1
(I1
tp9012
g26
I00
S'\xf4\xf4\x7f?'
p9013
tp9014
b(lp9015
g32
atp9016
s(g271
g3
(g7
S'P\x00\x00\x00'
p9017
tp9018
Rp9019
tp9020
(g17
(g18
(I0
tp9021
g20
tp9022
Rp9023
(I1
(I1
tp9024
g26
I00
S'\xfb\xff\x7f?'
p9025
tp9026
b(lp9027
g32
atp9028
s(g96
g3
(g7
S'\x14\x00\x00\x00'
p9029
tp9030
Rp9031
tp9032
(g17
(g18
(I0
tp9033
g20
tp9034
Rp9035
(I1
(I1
tp9036
g26
I00
S'f\xff\x7f?'
p9037
tp9038
b(lp9039
g135
atp9040
s(g51
g3
(g7
S'\x1e\x00\x00\x00'
p9041
tp9042
Rp9043
tp9044
(g17
(g18
(I0
tp9045
g20
tp9046
Rp9047
(I1
(I1
tp9048
g26
I00
S'\x0c\xe5\x7f?'
p9049
tp9050
b(lp9051
g32
atp9052
s(g199
g3
(g7
S'<\x00\x00\x00'
p9053
tp9054
Rp9055
tp9056
(g17
(g18
(I0
tp9057
g20
tp9058
Rp9059
(I1
(I1
tp9060
g26
I00
S'\x00\xff\x7f?'
p9061
tp9062
b(lp9063
g32
atp9064
s(g1180
g3
(g7
S'\x19\x00\x00\x00'
p9065
tp9066
Rp9067
tp9068
(g17
(g18
(I0
tp9069
g20
tp9070
Rp9071
(I1
(I1
tp9072
g26
I00
S'\x8a<\x7f?'
p9073
tp9074
b(lp9075
g32
atp9076
s(g12
g3
(g7
S'\x00\x00\x00\x00'
p9077
tp9078
Rp9079
tp9080
(g17
(g18
(I0
tp9081
g20
tp9082
Rp9083
(I1
(I1
tp9084
g26
I00
S'\x18\xf9\x7f?'
p9085
tp9086
b(lp9087
g32
atp9088
s(g1054
g3
(g7
S'A\x00\x00\x00'
p9089
tp9090
Rp9091
tp9092
(g17
(g18
(I0
tp9093
g20
tp9094
Rp9095
(I1
(I1
tp9096
g26
I00
S';\xfe\x7f?'
p9097
tp9098
b(lp9099
g32
atp9100
s(g1141
g3
(g7
S'#\x00\x00\x00'
p9101
tp9102
Rp9103
tp9104
(g17
(g18
(I0
tp9105
g20
tp9106
Rp9107
(I1
(I1
tp9108
g26
I00
S'\xa6\xff\x7f?'
p9109
tp9110
b(lp9111
g32
atp9112
s(g379
g3
(g7
S'U\x00\x00\x00'
p9113
tp9114
Rp9115
tp9116
(g17
(g18
(I0
tp9117
g20
tp9118
Rp9119
(I1
(I1
tp9120
g26
I00
S'\xfc\xff\x7f?'
p9121
tp9122
b(lp9123
g32
atp9124
s(g352
g3
(g7
S'(\x00\x00\x00'
p9125
tp9126
Rp9127
tp9128
(g17
(g18
(I0
tp9129
g20
tp9130
Rp9131
(I1
(I1
tp9132
g26
I00
S'\xec\xfe\x7f?'
p9133
tp9134
b(lp9135
g32
atp9136
s(g81
g3
(g7
S'U\x00\x00\x00'
p9137
tp9138
Rp9139
tp9140
(g17
(g18
(I0
tp9141
g20
tp9142
Rp9143
(I1
(I1
tp9144
g26
I00
S'\x0f\xe8\x7f?'
p9145
tp9146
b(lp9147
g32
atp9148
s(g424
g3
(g7
S'A\x00\x00\x00'
p9149
tp9150
Rp9151
tp9152
(g17
(g18
(I0
tp9153
g20
tp9154
Rp9155
(I1
(I1
tp9156
g26
I00
S'_\xff\x7f?'
p9157
tp9158
b(lp9159
g32
atp9160
s(g66
g3
(g7
S'7\x00\x00\x00'
p9161
tp9162
Rp9163
tp9164
(g17
(g18
(I0
tp9165
g20
tp9166
Rp9167
(I1
(I1
tp9168
g26
I00
S'm\xfe\x7f?'
p9169
tp9170
b(lp9171
g32
atp9172
s(g562
g3
(g7
S'\x1e\x00\x00\x00'
p9173
tp9174
Rp9175
tp9176
(g17
(g18
(I0
tp9177
g20
tp9178
Rp9179
(I1
(I1
tp9180
g26
I00
S'd\x14\x7f?'
p9181
tp9182
b(lp9183
g135
atp9184
s(g697
g3
(g7
S'<\x00\x00\x00'
p9185
tp9186
Rp9187
tp9188
(g17
(g18
(I0
tp9189
g20
tp9190
Rp9191
(I1
(I1
tp9192
g26
I00
S'\xb1\xff\x7f?'
p9193
tp9194
b(lp9195
g32
atp9196
s(g169
g3
(g7
S'\x00\x00\x00\x00'
p9197
tp9198
Rp9199
tp9200
(g17
(g18
(I0
tp9201
g20
tp9202
Rp9203
(I1
(I1
tp9204
g26
I00
S"|'\x7f?"
p9205
tp9206
b(lp9207
g32
atp9208
s(g631
g3
(g7
S'\x14\x00\x00\x00'
p9209
tp9210
Rp9211
tp9212
(g17
(g18
(I0
tp9213
g20
tp9214
Rp9215
(I1
(I1
tp9216
g26
I00
S'"\xcfK?'
p9217
tp9218
b(lp9219
g32
atp9220
s(g523
g3
(g7
S'2\x00\x00\x00'
p9221
tp9222
Rp9223
tp9224
(g17
(g18
(I0
tp9225
g20
tp9226
Rp9227
(I1
(I1
tp9228
g26
I00
S'\xb7\xe7\x7f?'
p9229
tp9230
b(lp9231
g32
atp9232
s(g169
g3
(g7
S'<\x00\x00\x00'
p9233
tp9234
Rp9235
tp9236
(g17
(g18
(I0
tp9237
g20
tp9238
Rp9239
(I1
(I1
tp9240
g26
I00
S'\xa2\x93\x7f?'
p9241
tp9242
b(lp9243
g32
atp9244
s(g271
g3
(g7
S'\x1e\x00\x00\x00'
p9245
tp9246
Rp9247
tp9248
(g17
(g18
(I0
tp9249
g20
tp9250
Rp9251
(I1
(I1
tp9252
g26
I00
S'\xf1\xdbi?'
p9253
tp9254
b(lp9255
g32
atp9256
s(g478
g3
(g7
S'\x00\x00\x00\x00'
p9257
tp9258
Rp9259
tp9260
(g17
(g18
(I0
tp9261
g20
tp9262
Rp9263
(I1
(I1
tp9264
g26
I00
S'\xde\xf7\x7f?'
p9265
tp9266
b(lp9267
g32
atp9268
s(g96
g3
(g7
S'F\x00\x00\x00'
p9269
tp9270
Rp9271
tp9272
(g17
(g18
(I0
tp9273
g20
tp9274
Rp9275
(I1
(I1
tp9276
g26
I00
S'\xda\xd9\x7f?'
p9277
tp9278
b(lp9279
g32
atp9280
s(g111
g3
(g7
S'A\x00\x00\x00'
p9281
tp9282
Rp9283
tp9284
(g17
(g18
(I0
tp9285
g20
tp9286
Rp9287
(I1
(I1
tp9288
g26
I00
S'\x00\x00\x80?'
p9289
tp9290
b(lp9291
g32
atp9292
s(g36
g3
(g7
S'P\x00\x00\x00'
p9293
tp9294
Rp9295
tp9296
(g17
(g18
(I0
tp9297
g20
tp9298
Rp9299
(I1
(I1
tp9300
g26
I00
S'\xfc\xff\x7f?'
p9301
tp9302
b(lp9303
g32
atp9304
s(g169
g3
(g7
S'-\x00\x00\x00'
p9305
tp9306
Rp9307
tp9308
(g17
(g18
(I0
tp9309
g20
tp9310
Rp9311
(I1
(I1
tp9312
g26
I00
S'\x89\xfe\x7f?'
p9313
tp9314
b(lp9315
g32
atp9316
s(g1579
g3
(g7
S'\x1e\x00\x00\x00'
p9317
tp9318
Rp9319
tp9320
(g17
(g18
(I0
tp9321
g20
tp9322
Rp9323
(I1
(I1
tp9324
g26
I00
S'\xa7\xff\x7f?'
p9325
tp9326
b(lp9327
g32
atp9328
s(g1141
g3
(g7
S'\x1e\x00\x00\x00'
p9329
tp9330
Rp9331
tp9332
(g17
(g18
(I0
tp9333
g20
tp9334
Rp9335
(I1
(I1
tp9336
g26
I00
S'\xeb\xfb\x7f?'
p9337
tp9338
b(lp9339
g32
atp9340
s(g1579
g3
(g7
S'A\x00\x00\x00'
p9341
tp9342
Rp9343
tp9344
(g17
(g18
(I0
tp9345
g20
tp9346
Rp9347
(I1
(I1
tp9348
g26
I00
S'\xdc\xff\x7f?'
p9349
tp9350
b(lp9351
g32
atp9352
s(g184
g3
(g7
S'2\x00\x00\x00'
p9353
tp9354
Rp9355
tp9356
(g17
(g18
(I0
tp9357
g20
tp9358
Rp9359
(I1
(I1
tp9360
g26
I00
S'N\xfc\x7f?'
p9361
tp9362
b(lp9363
g32
atp9364
s(g802
g3
(g7
S'(\x00\x00\x00'
p9365
tp9366
Rp9367
tp9368
(g17
(g18
(I0
tp9369
g20
tp9370
Rp9371
(I1
(I1
tp9372
g26
I00
S'\x84\xbb[?'
p9373
tp9374
b(lp9375
g135
atp9376
s(g12
g3
(g7
S'(\x00\x00\x00'
p9377
tp9378
Rp9379
tp9380
(g17
(g18
(I0
tp9381
g20
tp9382
Rp9383
(I1
(I1
tp9384
g26
I00
S'\x97\xb6!?'
p9385
tp9386
b(lp9387
g32
atp9388
s(g139
g3
(g7
S'-\x00\x00\x00'
p9389
tp9390
Rp9391
tp9392
(g17
(g18
(I0
tp9393
g20
tp9394
Rp9395
(I1
(I1
tp9396
g26
I00
S'3\x9f\x15?'
p9397
tp9398
b(lp9399
g135
atp9400
s(g409
g3
(g7
S'\x0f\x00\x00\x00'
p9401
tp9402
Rp9403
tp9404
(g17
(g18
(I0
tp9405
g20
tp9406
Rp9407
(I1
(I1
tp9408
g26
I00
S'x\xa8\x7f?'
p9409
tp9410
b(lp9411
g32
atp9412
s(g2065
g3
(g7
S'-\x00\x00\x00'
p9413
tp9414
Rp9415
tp9416
(g17
(g18
(I0
tp9417
g20
tp9418
Rp9419
(I1
(I1
tp9420
g26
I00
S'\x19\xfe\x7f?'
p9421
tp9422
b(lp9423
g32
atp9424
s(g184
g3
(g7
S'\x0f\x00\x00\x00'
p9425
tp9426
Rp9427
tp9428
(g17
(g18
(I0
tp9429
g20
tp9430
Rp9431
(I1
(I1
tp9432
g26
I00
S'\xea\xd1t?'
p9433
tp9434
b(lp9435
g32
atp9436
s(g51
g3
(g7
S'F\x00\x00\x00'
p9437
tp9438
Rp9439
tp9440
(g17
(g18
(I0
tp9441
g20
tp9442
Rp9443
(I1
(I1
tp9444
g26
I00
S'\xac\xe7\x7f?'
p9445
tp9446
b(lp9447
g32
atp9448
s(g1141
g3
(g7
S'\x00\x00\x00\x00'
p9449
tp9450
Rp9451
tp9452
(g17
(g18
(I0
tp9453
g20
tp9454
Rp9455
(I1
(I1
tp9456
g26
I00
S'0\xff\x7f?'
p9457
tp9458
b(lp9459
g32
atp9460
s(g256
g3
(g7
S'K\x00\x00\x00'
p9461
tp9462
Rp9463
tp9464
(g17
(g18
(I0
tp9465
g20
tp9466
Rp9467
(I1
(I1
tp9468
g26
I00
S'9\xdd|?'
p9469
tp9470
b(lp9471
g135
atp9472
s(g727
g3
(g7
S'-\x00\x00\x00'
p9473
tp9474
Rp9475
tp9476
(g17
(g18
(I0
tp9477
g20
tp9478
Rp9479
(I1
(I1
tp9480
g26
I00
S'\xb8c\x7f?'
p9481
tp9482
b(lp9483
g32
atp9484
s(g493
g3
(g7
S'A\x00\x00\x00'
p9485
tp9486
Rp9487
tp9488
(g17
(g18
(I0
tp9489
g20
tp9490
Rp9491
(I1
(I1
tp9492
g26
I00
S'\xc4\xf5\x7f?'
p9493
tp9494
b(lp9495
g32
atp9496
s(g1579
g3
(g7
S'\x14\x00\x00\x00'
p9497
tp9498
Rp9499
tp9500
(g17
(g18
(I0
tp9501
g20
tp9502
Rp9503
(I1
(I1
tp9504
g26
I00
S'\x17\xf3\x7f?'
p9505
tp9506
b(lp9507
g32
atp9508
s(g2065
g3
(g7
S'7\x00\x00\x00'
p9509
tp9510
Rp9511
tp9512
(g17
(g18
(I0
tp9513
g20
tp9514
Rp9515
(I1
(I1
tp9516
g26
I00
S'Z\xff\x7f?'
p9517
tp9518
b(lp9519
g32
atp9520
s(g979
g3
(g7
S'\x14\x00\x00\x00'
p9521
tp9522
Rp9523
tp9524
(g17
(g18
(I0
tp9525
g20
tp9526
Rp9527
(I1
(I1
tp9528
g26
I00
S'l\xbf\x7f?'
p9529
tp9530
b(lp9531
g32
atp9532
s(g111
g3
(g7
S'\x14\x00\x00\x00'
p9533
tp9534
Rp9535
tp9536
(g17
(g18
(I0
tp9537
g20
tp9538
Rp9539
(I1
(I1
tp9540
g26
I00
S'\x19\xceh?'
p9541
tp9542
b(lp9543
g32
atp9544
s(g12
g3
(g7
S'\x19\x00\x00\x00'
p9545
tp9546
Rp9547
tp9548
(g17
(g18
(I0
tp9549
g20
tp9550
Rp9551
(I1
(I1
tp9552
g26
I00
S'\x84Y~?'
p9553
tp9554
b(lp9555
g32
atp9556
s(g36
g3
(g7
S'-\x00\x00\x00'
p9557
tp9558
Rp9559
tp9560
(g17
(g18
(I0
tp9561
g20
tp9562
Rp9563
(I1
(I1
tp9564
g26
I00
S'\x18\xeb\x7f?'
p9565
tp9566
b(lp9567
g135
atp9568
s(g658
g3
(g7
S'\x0f\x00\x00\x00'
p9569
tp9570
Rp9571
tp9572
(g17
(g18
(I0
tp9573
g20
tp9574
Rp9575
(I1
(I1
tp9576
g26
I00
S'n\xe4\x7f?'
p9577
tp9578
b(lp9579
g32
atp9580
s(g424
g3
(g7
S'(\x00\x00\x00'
p9581
tp9582
Rp9583
tp9584
(g17
(g18
(I0
tp9585
g20
tp9586
Rp9587
(I1
(I1
tp9588
g26
I00
S'\x86\xec\x7f?'
p9589
tp9590
b(lp9591
g32
atp9592
s(g66
g3
(g7
S'\x14\x00\x00\x00'
p9593
tp9594
Rp9595
tp9596
(g17
(g18
(I0
tp9597
g20
tp9598
Rp9599
(I1
(I1
tp9600
g26
I00
S'<\xf0k?'
p9601
tp9602
b(lp9603
g32
atp9604
s(g1180
g3
(g7
S'\x14\x00\x00\x00'
p9605
tp9606
Rp9607
tp9608
(g17
(g18
(I0
tp9609
g20
tp9610
Rp9611
(I1
(I1
tp9612
g26
I00
S'\xc2\xf1\x7f?'
p9613
tp9614
b(lp9615
g32
atp9616
s(g1054
g3
(g7
S'-\x00\x00\x00'
p9617
tp9618
Rp9619
tp9620
(g17
(g18
(I0
tp9621
g20
tp9622
Rp9623
(I1
(I1
tp9624
g26
I00
S'Lo=?'
p9625
tp9626
b(lp9627
g32
atp9628
s(g199
g3
(g7
S'K\x00\x00\x00'
p9629
tp9630
Rp9631
tp9632
(g17
(g18
(I0
tp9633
g20
tp9634
Rp9635
(I1
(I1
tp9636
g26
I00
S'g\xff\x7f?'
p9637
tp9638
b(lp9639
g32
atp9640
s(g1579
g3
(g7
S'\x00\x00\x00\x00'
p9641
tp9642
Rp9643
tp9644
(g17
(g18
(I0
tp9645
g20
tp9646
Rp9647
(I1
(I1
tp9648
g26
I00
S'j\xfd\x7f?'
p9649
tp9650
b(lp9651
g32
atp9652
s(g154
g3
(g7
S'(\x00\x00\x00'
p9653
tp9654
Rp9655
tp9656
(g17
(g18
(I0
tp9657
g20
tp9658
Rp9659
(I1
(I1
tp9660
g26
I00
S'{;X?'
p9661
tp9662
b(lp9663
g32
atp9664
s(g493
g3
(g7
S'<\x00\x00\x00'
p9665
tp9666
Rp9667
tp9668
(g17
(g18
(I0
tp9669
g20
tp9670
Rp9671
(I1
(I1
tp9672
g26
I00
S'\xfc\xd1\x7f?'
p9673
tp9674
b(lp9675
g32
atp9676
s(g604
g3
(g7
S'\x0f\x00\x00\x00'
p9677
tp9678
Rp9679
tp9680
(g17
(g18
(I0
tp9681
g20
tp9682
Rp9683
(I1
(I1
tp9684
g26
I00
S'&\xe1\x7f?'
p9685
tp9686
b(lp9687
g32
atp9688
s(g1054
g3
(g7
S'7\x00\x00\x00'
p9689
tp9690
Rp9691
tp9692
(g17
(g18
(I0
tp9693
g20
tp9694
Rp9695
(I1
(I1
tp9696
g26
I00
S'\xc0\xa9\x7f?'
p9697
tp9698
b(lp9699
g32
atp9700
s(g631
g3
(g7
S'\x0f\x00\x00\x00'
p9701
tp9702
Rp9703
tp9704
(g17
(g18
(I0
tp9705
g20
tp9706
Rp9707
(I1
(I1
tp9708
g26
I00
S'N\xc5x?'
p9709
tp9710
b(lp9711
g32
atp9712
s(g214
g3
(g7
S'-\x00\x00\x00'
p9713
tp9714
Rp9715
tp9716
(g17
(g18
(I0
tp9717
g20
tp9718
Rp9719
(I1
(I1
tp9720
g26
I00
S'?pS?'
p9721
tp9722
b(lp9723
g32
atp9724
s(g802
g3
(g7
S'P\x00\x00\x00'
p9725
tp9726
Rp9727
tp9728
(g17
(g18
(I0
tp9729
g20
tp9730
Rp9731
(I1
(I1
tp9732
g26
I00
S'\x99\xff\x7f?'
p9733
tp9734
b(lp9735
g32
atp9736
s(g256
g3
(g7
S'\x00\x00\x00\x00'
p9737
tp9738
Rp9739
tp9740
(g17
(g18
(I0
tp9741
g20
tp9742
Rp9743
(I1
(I1
tp9744
g26
I00
S'^\xfe\x7f?'
p9745
tp9746
b(lp9747
g32
atp9748
s(g81
g3
(g7
S'(\x00\x00\x00'
p9749
tp9750
Rp9751
tp9752
(g17
(g18
(I0
tp9753
g20
tp9754
Rp9755
(I1
(I1
tp9756
g26
I00
S'P\xe6~?'
p9757
tp9758
b(lp9759
g32
atp9760
s(g904
g3
(g7
S'#\x00\x00\x00'
p9761
tp9762
Rp9763
tp9764
(g17
(g18
(I0
tp9765
g20
tp9766
Rp9767
(I1
(I1
tp9768
g26
I00
S'\x1f\xfe\x7f?'
p9769
tp9770
b(lp9771
g32
atp9772
s(g1180
g3
(g7
S'P\x00\x00\x00'
p9773
tp9774
Rp9775
tp9776
(g17
(g18
(I0
tp9777
g20
tp9778
Rp9779
(I1
(I1
tp9780
g26
I00
S'\xccpx?'
p9781
tp9782
b(lp9783
g32
atp9784
s(g712
g3
(g7
S'\x1e\x00\x00\x00'
p9785
tp9786
Rp9787
tp9788
(g17
(g18
(I0
tp9789
g20
tp9790
Rp9791
(I1
(I1
tp9792
g26
I00
S'\xe9\xff\x7f?'
p9793
tp9794
b(lp9795
g135
atp9796
s(g1579
g3
(g7
S'\x19\x00\x00\x00'
p9797
tp9798
Rp9799
tp9800
(g17
(g18
(I0
tp9801
g20
tp9802
Rp9803
(I1
(I1
tp9804
g26
I00
S'\x93\xfc\x7f?'
p9805
tp9806
b(lp9807
g32
atp9808
s(g697
g3
(g7
S'\x0f\x00\x00\x00'
p9809
tp9810
Rp9811
tp9812
(g17
(g18
(I0
tp9813
g20
tp9814
Rp9815
(I1
(I1
tp9816
g26
I00
S')~\x7f?'
p9817
tp9818
b(lp9819
g32
atp9820
s(g562
g3
(g7
S'7\x00\x00\x00'
p9821
tp9822
Rp9823
tp9824
(g17
(g18
(I0
tp9825
g20
tp9826
Rp9827
(I1
(I1
tp9828
g26
I00
S'=\xd2\x1d?'
p9829
tp9830
b(lp9831
g135
atp9832
s(g1702
g3
(g7
S'P\x00\x00\x00'
p9833
tp9834
Rp9835
tp9836
(g17
(g18
(I0
tp9837
g20
tp9838
Rp9839
(I1
(I1
tp9840
g26
I00
S'\xf5\xff\x7f?'
p9841
tp9842
b(lp9843
g32
atp9844
s(g66
g3
(g7
S'P\x00\x00\x00'
p9845
tp9846
Rp9847
tp9848
(g17
(g18
(I0
tp9849
g20
tp9850
Rp9851
(I1
(I1
tp9852
g26
I00
S'\x81\xc9}?'
p9853
tp9854
b(lp9855
g135
atp9856
s(g1579
g3
(g7
S'#\x00\x00\x00'
p9857
tp9858
Rp9859
tp9860
(g17
(g18
(I0
tp9861
g20
tp9862
Rp9863
(I1
(I1
tp9864
g26
I00
S'h\xfe\x7f?'
p9865
tp9866
b(lp9867
g32
atp9868
s(g658
g3
(g7
S'(\x00\x00\x00'
p9869
tp9870
Rp9871
tp9872
(g17
(g18
(I0
tp9873
g20
tp9874
Rp9875
(I1
(I1
tp9876
g26
I00
S'+\xf4\x0b?'
p9877
tp9878
b(lp9879
g135
atp9880
s(g508
g3
(g7
S'2\x00\x00\x00'
p9881
tp9882
Rp9883
tp9884
(g17
(g18
(I0
tp9885
g20
tp9886
Rp9887
(I1
(I1
tp9888
g26
I00
S"'\xfd\x7f?"
p9889
tp9890
b(lp9891
g32
atp9892
s(g229
g3
(g7
S'<\x00\x00\x00'
p9893
tp9894
Rp9895
tp9896
(g17
(g18
(I0
tp9897
g20
tp9898
Rp9899
(I1
(I1
tp9900
g26
I00
S'J\xed\x7f?'
p9901
tp9902
b(lp9903
g32
atp9904
s(g979
g3
(g7
S'\x0f\x00\x00\x00'
p9905
tp9906
Rp9907
tp9908
(g17
(g18
(I0
tp9909
g20
tp9910
Rp9911
(I1
(I1
tp9912
g26
I00
S'\xa8\xcf\x7f?'
p9913
tp9914
b(lp9915
g32
atp9916
s(g394
g3
(g7
S'U\x00\x00\x00'
p9917
tp9918
Rp9919
tp9920
(g17
(g18
(I0
tp9921
g20
tp9922
Rp9923
(I1
(I1
tp9924
g26
I00
S"'\xff\x7f?"
p9925
tp9926
b(lp9927
g32
atp9928
s(g96
g3
(g7
S'\x00\x00\x00\x00'
p9929
tp9930
Rp9931
tp9932
(g17
(g18
(I0
tp9933
g20
tp9934
Rp9935
(I1
(I1
tp9936
g26
I00
S'\xd5\xe8\x15?'
p9937
tp9938
b(lp9939
g32
atp9940
s(g394
g3
(g7
S'\x0f\x00\x00\x00'
p9941
tp9942
Rp9943
tp9944
(g17
(g18
(I0
tp9945
g20
tp9946
Rp9947
(I1
(I1
tp9948
g26
I00
S'd\x90\x7f?'
p9949
tp9950
b(lp9951
g32
atp9952
s(g493
g3
(g7
S'7\x00\x00\x00'
p9953
tp9954
Rp9955
tp9956
(g17
(g18
(I0
tp9957
g20
tp9958
Rp9959
(I1
(I1
tp9960
g26
I00
S'q\xfb\x7f?'
p9961
tp9962
b(lp9963
g32
atp9964
s(g697
g3
(g7
S'2\x00\x00\x00'
p9965
tp9966
Rp9967
tp9968
(g17
(g18
(I0
tp9969
g20
tp9970
Rp9971
(I1
(I1
tp9972
g26
I00
S'\x86M}?'
p9973
tp9974
b(lp9975
g32
atp9976
s(g169
g3
(g7
S'2\x00\x00\x00'
p9977
tp9978
Rp9979
tp9980
(g17
(g18
(I0
tp9981
g20
tp9982
Rp9983
(I1
(I1
tp9984
g26
I00
S'\x16\xea\x7f?'
p9985
tp9986
b(lp9987
g32
atp9988
s(g508
g3
(g7
S'U\x00\x00\x00'
p9989
tp9990
Rp9991
tp9992
(g17
(g18
(I0
tp9993
g20
tp9994
Rp9995
(I1
(I1
tp9996
g26
I00
S'\xf7\xfc\x7f?'
p9997
tp9998
b(lp9999
g32
atp10000
s(g577
g3
(g7
S'2\x00\x00\x00'
p10001
tp10002
Rp10003
tp10004
(g17
(g18
(I0
tp10005
g20
tp10006
Rp10007
(I1
(I1
tp10008
g26
I00
S'\xef\xcf\x7f?'
p10009
tp10010
b(lp10011
g32
atp10012
s(g66
g3
(g7
S'#\x00\x00\x00'
p10013
tp10014
Rp10015
tp10016
(g17
(g18
(I0
tp10017
g20
tp10018
Rp10019
(I1
(I1
tp10020
g26
I00
S'\x965t?'
p10021
tp10022
b(lp10023
g135
atp10024
s(g697
g3
(g7
S'(\x00\x00\x00'
p10025
tp10026
Rp10027
tp10028
(g17
(g18
(I0
tp10029
g20
tp10030
Rp10031
(I1
(I1
tp10032
g26
I00
S'JAz?'
p10033
tp10034
b(lp10035
g135
atp10036
s(g169
g3
(g7
S'\x14\x00\x00\x00'
p10037
tp10038
Rp10039
tp10040
(g17
(g18
(I0
tp10041
g20
tp10042
Rp10043
(I1
(I1
tp10044
g26
I00
S'\x18\x8b<?'
p10045
tp10046
b(lp10047
g135
atp10048
s(g214
g3
(g7
S'\x0f\x00\x00\x00'
p10049
tp10050
Rp10051
tp10052
(g17
(g18
(I0
tp10053
g20
tp10054
Rp10055
(I1
(I1
tp10056
g26
I00
S'\xf0\xd6}?'
p10057
tp10058
b(lp10059
g32
atp10060
s(g658
g3
(g7
S'P\x00\x00\x00'
p10061
tp10062
Rp10063
tp10064
(g17
(g18
(I0
tp10065
g20
tp10066
Rp10067
(I1
(I1
tp10068
g26
I00
S'\x9e\xff\x7f?'
p10069
tp10070
b(lp10071
g32
atp10072
s(g577
g3
(g7
S'(\x00\x00\x00'
p10073
tp10074
Rp10075
tp10076
(g17
(g18
(I0
tp10077
g20
tp10078
Rp10079
(I1
(I1
tp10080
g26
I00
S'1\xc9u?'
p10081
tp10082
b(lp10083
g32
atp10084
s(g979
g3
(g7
S'#\x00\x00\x00'
p10085
tp10086
Rp10087
tp10088
(g17
(g18
(I0
tp10089
g20
tp10090
Rp10091
(I1
(I1
tp10092
g26
I00
S'\xf8\x94(?'
p10093
tp10094
b(lp10095
g135
atp10096
s(g1141
g3
(g7
S'(\x00\x00\x00'
p10097
tp10098
Rp10099
tp10100
(g17
(g18
(I0
tp10101
g20
tp10102
Rp10103
(I1
(I1
tp10104
g26
I00
S'\xe8\xff\x7f?'
p10105
tp10106
b(lp10107
g32
atp10108
s(g604
g3
(g7
S'\n\x00\x00\x00'
p10109
tp10110
Rp10111
tp10112
(g17
(g18
(I0
tp10113
g20
tp10114
Rp10115
(I1
(I1
tp10116
g26
I00
S'\xaa\xf1\x7f?'
p10117
tp10118
b(lp10119
g32
atp10120
s(g904
g3
(g7
S'P\x00\x00\x00'
p10121
tp10122
Rp10123
tp10124
(g17
(g18
(I0
tp10125
g20
tp10126
Rp10127
(I1
(I1
tp10128
g26
I00
S'\x8a\xef\x7f?'
p10129
tp10130
b(lp10131
g32
atp10132
s(g139
g3
(g7
S'#\x00\x00\x00'
p10133
tp10134
Rp10135
tp10136
(g17
(g18
(I0
tp10137
g20
tp10138
Rp10139
(I1
(I1
tp10140
g26
I00
S'V\xc6w?'
p10141
tp10142
b(lp10143
g135
atp10144
s(g409
g3
(g7
S'\x19\x00\x00\x00'
p10145
tp10146
Rp10147
tp10148
(g17
(g18
(I0
tp10149
g20
tp10150
Rp10151
(I1
(I1
tp10152
g26
I00
S'_\xfd\x7f?'
p10153
tp10154
b(lp10155
g32
atp10156
s(g631
g3
(g7
S'2\x00\x00\x00'
p10157
tp10158
Rp10159
tp10160
(g17
(g18
(I0
tp10161
g20
tp10162
Rp10163
(I1
(I1
tp10164
g26
I00
S'J\xf9\x7f?'
p10165
tp10166
b(lp10167
g32
atp10168
s(g802
g3
(g7
S'<\x00\x00\x00'
p10169
tp10170
Rp10171
tp10172
(g17
(g18
(I0
tp10173
g20
tp10174
Rp10175
(I1
(I1
tp10176
g26
I00
S'\xf6\xff\x7f?'
p10177
tp10178
b(lp10179
g32
atp10180
s(g493
g3
(g7
S'\x14\x00\x00\x00'
p10181
tp10182
Rp10183
tp10184
(g17
(g18
(I0
tp10185
g20
tp10186
Rp10187
(I1
(I1
tp10188
g26
I00
S'\x8a\xe2\x7f?'
p10189
tp10190
b(lp10191
g135
atp10192
s(g712
g3
(g7
S'A\x00\x00\x00'
p10193
tp10194
Rp10195
tp10196
(g17
(g18
(I0
tp10197
g20
tp10198
Rp10199
(I1
(I1
tp10200
g26
I00
S'\xf8\xff\x7f?'
p10201
tp10202
b(lp10203
g32
atp10204
s(g562
g3
(g7
S'P\x00\x00\x00'
p10205
tp10206
Rp10207
tp10208
(g17
(g18
(I0
tp10209
g20
tp10210
Rp10211
(I1
(I1
tp10212
g26
I00
S'\x99\xf6\x7f?'
p10213
tp10214
b(lp10215
g32
atp10216
s(g508
g3
(g7
S'\x14\x00\x00\x00'
p10217
tp10218
Rp10219
tp10220
(g17
(g18
(I0
tp10221
g20
tp10222
Rp10223
(I1
(I1
tp10224
g26
I00
S'#\x81$?'
p10225
tp10226
b(lp10227
g135
atp10228
s(g463
g3
(g7
S'<\x00\x00\x00'
p10229
tp10230
Rp10231
tp10232
(g17
(g18
(I0
tp10233
g20
tp10234
Rp10235
(I1
(I1
tp10236
g26
I00
S'4\xad\x7f?'
p10237
tp10238
b(lp10239
g32
atp10240
s(g379
g3
(g7
S'(\x00\x00\x00'
p10241
tp10242
Rp10243
tp10244
(g17
(g18
(I0
tp10245
g20
tp10246
Rp10247
(I1
(I1
tp10248
g26
I00
S'\x8d\xae~?'
p10249
tp10250
b(lp10251
g135
atp10252
s(g493
g3
(g7
S'\n\x00\x00\x00'
p10253
tp10254
Rp10255
tp10256
(g17
(g18
(I0
tp10257
g20
tp10258
Rp10259
(I1
(I1
tp10260
g26
I00
S'\x86c\x02?'
p10261
tp10262
b(lp10263
g135
atp10264
s(g817
g3
(g7
S'\x05\x00\x00\x00'
p10265
tp10266
Rp10267
tp10268
(g17
(g18
(I0
tp10269
g20
tp10270
Rp10271
(I1
(I1
tp10272
g26
I00
S'\xbe\xfd\x7f?'
p10273
tp10274
b(lp10275
g32
atp10276
s(g271
g3
(g7
S'U\x00\x00\x00'
p10277
tp10278
Rp10279
tp10280
(g17
(g18
(I0
tp10281
g20
tp10282
Rp10283
(I1
(I1
tp10284
g26
I00
S'\xfe\xff\x7f?'
p10285
tp10286
b(lp10287
g32
atp10288
s(g409
g3
(g7
S'U\x00\x00\x00'
p10289
tp10290
Rp10291
tp10292
(g17
(g18
(I0
tp10293
g20
tp10294
Rp10295
(I1
(I1
tp10296
g26
I00
S'\x84\xff\x7f?'
p10297
tp10298
b(lp10299
g32
atp10300
s(g96
g3
(g7
S'\x19\x00\x00\x00'
p10301
tp10302
Rp10303
tp10304
(g17
(g18
(I0
tp10305
g20
tp10306
Rp10307
(I1
(I1
tp10308
g26
I00
S'\xba\xdfQ?'
p10309
tp10310
b(lp10311
g32
atp10312
ss.