(dp0
S'result'
p1
(dp2
(cnumpy.core.multiarray
scalar
p3
(cnumpy
dtype
p4
(S'i4'
p5
I0
I1
tp6
Rp7
(I3
S'<'
p8
NNNI-1
I-1
I0
tp9
bS'\x00\x00\x00\x00'
p10
tp11
Rp12
g3
(g7
S'V\x00\x00\x00'
p13
tp14
Rp15
tp16
(cnumpy.core.multiarray
_reconstruct
p17
(cnumpy
ndarray
p18
(I0
tp19
S'b'
p20
tp21
Rp22
(I1
(I1
tp23
g4
(S'f4'
p24
I0
I1
tp25
Rp26
(I3
S'<'
p27
NNNI-1
I-1
I0
tp28
bI00
S'\xe1\xf9\x7f?'
p29
tp30
b(lp31
S'others'
p32
atp33
s(g12
g3
(g7
S'\x14\x00\x00\x00'
p34
tp35
Rp36
tp37
(g17
(g18
(I0
tp38
g20
tp39
Rp40
(I1
(I1
tp41
g26
I00
S"':r?"
p42
tp43
b(lp44
g32
atp45
s(g12
g3
(g7
S'Y\x00\x00\x00'
p46
tp47
Rp48
tp49
(g17
(g18
(I0
tp50
g20
tp51
Rp52
(I1
(I1
tp53
g26
I00
S'\xa6\xfe\x7f?'
p54
tp55
b(lp56
g32
atp57
s(g12
g3
(g7
S'\x07\x00\x00\x00'
p58
tp59
Rp60
tp61
(g17
(g18
(I0
tp62
g20
tp63
Rp64
(I1
(I1
tp65
g26
I00
S'\x8e\xfa\x7f?'
p66
tp67
b(lp68
g32
atp69
s(g12
g3
(g7
S'L\x00\x00\x00'
p70
tp71
Rp72
tp73
(g17
(g18
(I0
tp74
g20
tp75
Rp76
(I1
(I1
tp77
g26
I00
S'\xfe\xe2\x7f?'
p78
tp79
b(lp80
g32
atp81
s(g12
g3
(g7
S'\x90\x00\x00\x00'
p82
tp83
Rp84
tp85
(g17
(g18
(I0
tp86
g20
tp87
Rp88
(I1
(I1
tp89
g26
I00
S'm\xe18?'
p90
tp91
b(lp92
g32
atp93
s(g12
g3
(g7
S'\n\x00\x00\x00'
p94
tp95
Rp96
tp97
(g17
(g18
(I0
tp98
g20
tp99
Rp100
(I1
(I1
tp101
g26
I00
S'\xfe\xfd\x7f?'
p102
tp103
b(lp104
g32
atp105
s(g12
g3
(g7
S'\x7f\x00\x00\x00'
p106
tp107
Rp108
tp109
(g17
(g18
(I0
tp110
g20
tp111
Rp112
(I1
(I1
tp113
g26
I00
S'\xfe\xff\x7f?'
p114
tp115
b(lp116
g32
atp117
s(g12
g3
(g7
S'\x83\x00\x00\x00'
p118
tp119
Rp120
tp121
(g17
(g18
(I0
tp122
g20
tp123
Rp124
(I1
(I1
tp125
g26
I00
S'E\xff\x7f?'
p126
tp127
b(lp128
g32
atp129
s(g12
g3
(g7
S'=\x00\x00\x00'
p130
tp131
Rp132
tp133
(g17
(g18
(I0
tp134
g20
tp135
Rp136
(I1
(I1
tp137
g26
I00
S'\xb7\xfe\x7f?'
p138
tp139
b(lp140
g32
atp141
s(g12
g3
(g7
S'b\x00\x00\x00'
p142
tp143
Rp144
tp145
(g17
(g18
(I0
tp146
g20
tp147
Rp148
(I1
(I1
tp149
g26
I00
S'\xff\xff\x7f?'
p150
tp151
b(lp152
g32
atp153
s(g12
g3
(g7
S' \x00\x00\x00'
p154
tp155
Rp156
tp157
(g17
(g18
(I0
tp158
g20
tp159
Rp160
(I1
(I1
tp161
g26
I00
S'n\x8c\x0c?'
p162
tp163
b(lp164
g32
atp165
s(g12
g3
(g7
S'S\x00\x00\x00'
p166
tp167
Rp168
tp169
(g17
(g18
(I0
tp170
g20
tp171
Rp172
(I1
(I1
tp173
g26
I00
S'\x12\xf9\x7f?'
p174
tp175
b(lp176
g32
atp177
s(g12
g3
(g7
S'\x11\x00\x00\x00'
p178
tp179
Rp180
tp181
(g17
(g18
(I0
tp182
g20
tp183
Rp184
(I1
(I1
tp185
g26
I00
S'\xec\xe3~?'
p186
tp187
b(lp188
g32
atp189
s(g12
g3
(g7
S'F\x00\x00\x00'
p190
tp191
Rp192
tp193
(g17
(g18
(I0
tp194
g20
tp195
Rp196
(I1
(I1
tp197
g26
I00
S'\xf2\xc6\x7f?'
p198
tp199
b(lp200
g32
atp201
s(g12
g3
(g7
S'\x04\x00\x00\x00'
p202
tp203
Rp204
tp205
(g17
(g18
(I0
tp206
g20
tp207
Rp208
(I1
(I1
tp209
g26
I00
S'\xd4\xfe\x7f?'
p210
tp211
b(lp212
g32
atp213
s(g12
g3
(g7
S'I\x00\x00\x00'
p214
tp215
Rp216
tp217
(g17
(g18
(I0
tp218
g20
tp219
Rp220
(I1
(I1
tp221
g26
I00
S'D\xf9\x7f?'
p222
tp223
b(lp224
g32
atp225
s(g12
g3
(g7
S'\x9d\x00\x00\x00'
p226
tp227
Rp228
tp229
(g17
(g18
(I0
tp230
g20
tp231
Rp232
(I1
(I1
tp233
g26
I00
S'\xba\x06|?'
p234
tp235
b(lp236
S'car'
p237
atp238
s(g12
g3
(g7
S'7\x00\x00\x00'
p239
tp240
Rp241
tp242
(g17
(g18
(I0
tp243
g20
tp244
Rp245
(I1
(I1
tp246
g26
I00
S'\x95\xc6\x7f?'
p247
tp248
b(lp249
g32
atp250
s(g12
g3
(g7
S'|\x00\x00\x00'
p251
tp252
Rp253
tp254
(g17
(g18
(I0
tp255
g20
tp256
Rp257
(I1
(I1
tp258
g26
I00
S'\x00\x00\x80?'
p259
tp260
b(lp261
g32
atp262
s(g12
g3
(g7
S'\x80\x00\x00\x00'
p263
tp264
Rp265
tp266
(g17
(g18
(I0
tp267
g20
tp268
Rp269
(I1
(I1
tp270
g26
I00
S'\xff\xff\x7f?'
p271
tp272
b(lp273
g32
atp274
s(g12
g3
(g7
S':\x00\x00\x00'
p275
tp276
Rp277
tp278
(g17
(g18
(I0
tp279
g20
tp280
Rp281
(I1
(I1
tp282
g26
I00
S'&\xf8\x7f?'
p283
tp284
b(lp285
g32
atp286
s(g12
g3
(g7
S'o\x00\x00\x00'
p287
tp288
Rp289
tp290
(g17
(g18
(I0
tp291
g20
tp292
Rp293
(I1
(I1
tp294
g26
I00
S'\x00\x00\x80?'
p295
tp296
b(lp297
g32
atp298
s(g12
g3
(g7
S'-\x00\x00\x00'
p299
tp300
Rp301
tp302
(g17
(g18
(I0
tp303
g20
tp304
Rp305
(I1
(I1
tp306
g26
I00
S'\xc6t9?'
p307
tp308
b(lp309
g32
atp310
s(g12
g3
(g7
S'P\x00\x00\x00'
p311
tp312
Rp313
tp314
(g17
(g18
(I0
tp315
g20
tp316
Rp317
(I1
(I1
tp318
g26
I00
S'V\xf6\x7f?'
p319
tp320
b(lp321
g32
atp322
s(g12
g3
(g7
S'\x1e\x00\x00\x00'
p323
tp324
Rp325
tp326
(g17
(g18
(I0
tp327
g20
tp328
Rp329
(I1
(I1
tp330
g26
I00
S'D\x97\x1e?'
p331
tp332
b(lp333
g237
atp334
s(g12
g3
(g7
S'C\x00\x00\x00'
p335
tp336
Rp337
tp338
(g17
(g18
(I0
tp339
g20
tp340
Rp341
(I1
(I1
tp342
g26
I00
S'F\xd6\x7f?'
p343
tp344
b(lp345
g32
atp346
s(g12
g3
(g7
S'\x97\x00\x00\x00'
p347
tp348
Rp349
tp350
(g17
(g18
(I0
tp351
g20
tp352
Rp353
(I1
(I1
tp354
g26
I00
S'\xa2\xf8\x7f?'
p355
tp356
b(lp357
g237
atp358
s(g12
g3
(g7
S'\x01\x00\x00\x00'
p359
tp360
Rp361
tp362
(g17
(g18
(I0
tp363
g20
tp364
Rp365
(I1
(I1
tp366
g26
I00
S'\xae\xff\x7f?'
p367
tp368
b(lp369
g32
atp370
s(g12
g3
(g7
S'v\x00\x00\x00'
p371
tp372
Rp373
tp374
(g17
(g18
(I0
tp375
g20
tp376
Rp377
(I1
(I1
tp378
g26
I00
S'\x00\x00\x80?'
p379
tp380
b(lp381
g32
atp382
s(g12
g3
(g7
S'\x9a\x00\x00\x00'
p383
tp384
Rp385
tp386
(g17
(g18
(I0
tp387
g20
tp388
Rp389
(I1
(I1
tp390
g26
I00
S'`\xfc\x7f?'
p391
tp392
b(lp393
g237
atp394
s(g12
g3
(g7
S'4\x00\x00\x00'
p395
tp396
Rp397
tp398
(g17
(g18
(I0
tp399
g20
tp400
Rp401
(I1
(I1
tp402
g26
I00
S'\x1f\xb3\x7f?'
p403
tp404
b(lp405
g32
atp406
s(g12
g3
(g7
S'y\x00\x00\x00'
p407
tp408
Rp409
tp410
(g17
(g18
(I0
tp411
g20
tp412
Rp413
(I1
(I1
tp414
g26
I00
S'\x00\x00\x80?'
p415
tp416
b(lp417
g32
atp418
s(g12
g3
(g7
S'\x8d\x00\x00\x00'
p419
tp420
Rp421
tp422
(g17
(g18
(I0
tp423
g20
tp424
Rp425
(I1
(I1
tp426
g26
I00
S'\x88\rh?'
p427
tp428
b(lp429
g32
atp430
s(g12
g3
(g7
S"'\x00\x00\x00"
p431
tp432
Rp433
tp434
(g17
(g18
(I0
tp435
g20
tp436
Rp437
(I1
(I1
tp438
g26
I00
S'\xc9X(?'
p439
tp440
b(lp441
g32
atp442
s(g12
g3
(g7
S'l\x00\x00\x00'
p443
tp444
Rp445
tp446
(g17
(g18
(I0
tp447
g20
tp448
Rp449
(I1
(I1
tp450
g26
I00
S'\x00\x00\x80?'
p451
tp452
b(lp453
g32
atp454
s(g12
g3
(g7
S'*\x00\x00\x00'
p455
tp456
Rp457
tp458
(g17
(g18
(I0
tp459
g20
tp460
Rp461
(I1
(I1
tp462
g26
I00
S'\xf6\xee??'
p463
tp464
b(lp465
g32
atp466
s(g12
g3
(g7
S']\x00\x00\x00'
p467
tp468
Rp469
tp470
(g17
(g18
(I0
tp471
g20
tp472
Rp473
(I1
(I1
tp474
g26
I00
S'\xf3\xff\x7f?'
p475
tp476
b(lp477
g32
atp478
s(g12
g3
(g7
S'\x1b\x00\x00\x00'
p479
tp480
Rp481
tp482
(g17
(g18
(I0
tp483
g20
tp484
Rp485
(I1
(I1
tp486
g26
I00
S'\xe9\xd6\x05?'
p487
tp488
b(lp489
g237
atp490
s(g12
g3
(g7
S'@\x00\x00\x00'
p491
tp492
Rp493
tp494
(g17
(g18
(I0
tp495
g20
tp496
Rp497
(I1
(I1
tp498
g26
I00
S'\x96\xfb\x7f?'
p499
tp500
b(lp501
g32
atp502
s(g12
g3
(g7
S'\x94\x00\x00\x00'
p503
tp504
Rp505
tp506
(g17
(g18
(I0
tp507
g20
tp508
Rp509
(I1
(I1
tp510
g26
I00
S'_r\x7f?'
p511
tp512
b(lp513
g237
atp514
s(g12
g3
(g7
S'\x0e\x00\x00\x00'
p515
tp516
Rp517
tp518
(g17
(g18
(I0
tp519
g20
tp520
Rp521
(I1
(I1
tp522
g26
I00
S'\xc3\xfb\x7f?'
p523
tp524
b(lp525
g32
atp526
s(g12
g3
(g7
S's\x00\x00\x00'
p527
tp528
Rp529
tp530
(g17
(g18
(I0
tp531
g20
tp532
Rp533
(I1
(I1
tp534
g26
I00
S'\x00\x00\x80?'
p535
tp536
b(lp537
g32
atp538
s(g12
g3
(g7
S'\x87\x00\x00\x00'
p539
tp540
Rp541
tp542
(g17
(g18
(I0
tp543
g20
tp544
Rp545
(I1
(I1
tp546
g26
I00
S'\xf6\xee\x7f?'
p547
tp548
b(lp549
g32
atp550
s(g12
g3
(g7
S'1\x00\x00\x00'
p551
tp552
Rp553
tp554
(g17
(g18
(I0
tp555
g20
tp556
Rp557
(I1
(I1
tp558
g26
I00
S' \xbc~?'
p559
tp560
b(lp561
g32
atp562
s(g12
g3
(g7
S'f\x00\x00\x00'
p563
tp564
Rp565
tp566
(g17
(g18
(I0
tp567
g20
tp568
Rp569
(I1
(I1
tp570
g26
I00
S'\x00\x00\x80?'
p571
tp572
b(lp573
g32
atp574
s(g12
g3
(g7
S'\x8a\x00\x00\x00'
p575
tp576
Rp577
tp578
(g17
(g18
(I0
tp579
g20
tp580
Rp581
(I1
(I1
tp582
g26
I00
S'\xd6\xf6\x7f?'
p583
tp584
b(lp585
g32
atp586
s(g12
g3
(g7
S'$\x00\x00\x00'
p587
tp588
Rp589
tp590
(g17
(g18
(I0
tp591
g20
tp592
Rp593
(I1
(I1
tp594
g26
I00
S'f\xda\x01?'
p595
tp596
b(lp597
g237
atp598
s(g12
g3
(g7
S'i\x00\x00\x00'
p599
tp600
Rp601
tp602
(g17
(g18
(I0
tp603
g20
tp604
Rp605
(I1
(I1
tp606
g26
I00
S'\x00\x00\x80?'
p607
tp608
b(lp609
g32
atp610
s(g12
g3
(g7
S'W\x00\x00\x00'
p611
tp612
Rp613
tp614
(g17
(g18
(I0
tp615
g20
tp616
Rp617
(I1
(I1
tp618
g26
I00
S'#\xfd\x7f?'
p619
tp620
b(lp621
g32
atp622
s(g12
g3
(g7
S'\xa0\x00\x00\x00'
p623
tp624
Rp625
tp626
(g17
(g18
(I0
tp627
g20
tp628
Rp629
(I1
(I1
tp630
g26
I00
S'\xc2.\x00?'
p631
tp632
b(lp633
g32
atp634
s(g12
g3
(g7
S'\x15\x00\x00\x00'
p635
tp636
Rp637
tp638
(g17
(g18
(I0
tp639
g20
tp640
Rp641
(I1
(I1
tp642
g26
I00
S'\x1e#J?'
p643
tp644
b(lp645
g32
atp646
s(g12
g3
(g7
S'Z\x00\x00\x00'
p647
tp648
Rp649
tp650
(g17
(g18
(I0
tp651
g20
tp652
Rp653
(I1
(I1
tp654
g26
I00
S'\xe7\xfd\x7f?'
p655
tp656
b(lp657
g32
atp658
s(g12
g3
(g7
S'\x18\x00\x00\x00'
p659
tp660
Rp661
tp662
(g17
(g18
(I0
tp663
g20
tp664
Rp665
(I1
(I1
tp666
g26
I00
S'^\x95\t?'
p667
tp668
b(lp669
g237
atp670
s(g12
g3
(g7
S'M\x00\x00\x00'
p671
tp672
Rp673
tp674
(g17
(g18
(I0
tp675
g20
tp676
Rp677
(I1
(I1
tp678
g26
I00
S'\xc0\xd3\x7f?'
p679
tp680
b(lp681
g32
atp682
s(g12
g3
(g7
S'\x91\x00\x00\x00'
p683
tp684
Rp685
tp686
(g17
(g18
(I0
tp687
g20
tp688
Rp689
(I1
(I1
tp690
g26
I00
S'\xbc\x1b??'
p691
tp692
b(lp693
g32
atp694
s(g12
g3
(g7
S'\x0b\x00\x00\x00'
p695
tp696
Rp697
tp698
(g17
(g18
(I0
tp699
g20
tp700
Rp701
(I1
(I1
tp702
g26
I00
S'9\xfd\x7f?'
p703
tp704
b(lp705
g32
atp706
s(g12
g3
(g7
S'p\x00\x00\x00'
p707
tp708
Rp709
tp710
(g17
(g18
(I0
tp711
g20
tp712
Rp713
(I1
(I1
tp714
g26
I00
S'\x00\x00\x80?'
p715
tp716
b(lp717
g32
atp718
s(g12
g3
(g7
S'\x84\x00\x00\x00'
p719
tp720
Rp721
tp722
(g17
(g18
(I0
tp723
g20
tp724
Rp725
(I1
(I1
tp726
g26
I00
S'\xc3\xfc\x7f?'
p727
tp728
b(lp729
g32
atp730
s(g12
g3
(g7
S'>\x00\x00\x00'
p731
tp732
Rp733
tp734
(g17
(g18
(I0
tp735
g20
tp736
Rp737
(I1
(I1
tp738
g26
I00
S'\xdc\xfe\x7f?'
p739
tp740
b(lp741
g32
atp742
s(g12
g3
(g7
S'c\x00\x00\x00'
p743
tp744
Rp745
tp746
(g17
(g18
(I0
tp747
g20
tp748
Rp749
(I1
(I1
tp750
g26
I00
S'\xff\xff\x7f?'
p751
tp752
b(lp753
g32
atp754
s(g12
g3
(g7
S'!\x00\x00\x00'
p755
tp756
Rp757
tp758
(g17
(g18
(I0
tp759
g20
tp760
Rp761
(I1
(I1
tp762
g26
I00
S'<\xd3!?'
p763
tp764
b(lp765
g32
atp766
s(g12
g3
(g7
S'T\x00\x00\x00'
p767
tp768
Rp769
tp770
(g17
(g18
(I0
tp771
g20
tp772
Rp773
(I1
(I1
tp774
g26
I00
S'U\xfc\x7f?'
p775
tp776
b(lp777
g32
atp778
s(g12
g3
(g7
S'\x12\x00\x00\x00'
p779
tp780
Rp781
tp782
(g17
(g18
(I0
tp783
g20
tp784
Rp785
(I1
(I1
tp786
g26
I00
S'\x9c\xd7~?'
p787
tp788
b(lp789
g32
atp790
s(g12
g3
(g7
S'G\x00\x00\x00'
p791
tp792
Rp793
tp794
(g17
(g18
(I0
tp795
g20
tp796
Rp797
(I1
(I1
tp798
g26
I00
S'\xa2\xeb\x7f?'
p799
tp800
b(lp801
g32
atp802
s(g12
g3
(g7
S'\x05\x00\x00\x00'
p803
tp804
Rp805
tp806
(g17
(g18
(I0
tp807
g20
tp808
Rp809
(I1
(I1
tp810
g26
I00
S's\xfc\x7f?'
p811
tp812
b(lp813
g32
atp814
s(g12
g3
(g7
S'J\x00\x00\x00'
p815
tp816
Rp817
tp818
(g17
(g18
(I0
tp819
g20
tp820
Rp821
(I1
(I1
tp822
g26
I00
S'\x84\xf0\x7f?'
p823
tp824
b(lp825
g32
atp826
s(g12
g3
(g7
S'\x9e\x00\x00\x00'
p827
tp828
Rp829
tp830
(g17
(g18
(I0
tp831
g20
tp832
Rp833
(I1
(I1
tp834
g26
I00
S'e\xc8/?'
p835
tp836
b(lp837
g237
atp838
s(g12
g3
(g7
S'\x08\x00\x00\x00'
p839
tp840
Rp841
tp842
(g17
(g18
(I0
tp843
g20
tp844
Rp845
(I1
(I1
tp846
g26
I00
S'\x80\xfc\x7f?'
p847
tp848
b(lp849
g32
atp850
s(g12
g3
(g7
S'}\x00\x00\x00'
p851
tp852
Rp853
tp854
(g17
(g18
(I0
tp855
g20
tp856
Rp857
(I1
(I1
tp858
g26
I00
S'\xff\xff\x7f?'
p859
tp860
b(lp861
g32
atp862
s(g12
g3
(g7
S'\x81\x00\x00\x00'
p863
tp864
Rp865
tp866
(g17
(g18
(I0
tp867
g20
tp868
Rp869
(I1
(I1
tp870
g26
I00
S'\xf4\xff\x7f?'
p871
tp872
b(lp873
g32
atp874
s(g12
g3
(g7
S';\x00\x00\x00'
p875
tp876
Rp877
tp878
(g17
(g18
(I0
tp879
g20
tp880
Rp881
(I1
(I1
tp882
g26
I00
S'\xdc\xfd\x7f?'
p883
tp884
b(lp885
g32
atp886
s(g12
g3
(g7
S'`\x00\x00\x00'
p887
tp888
Rp889
tp890
(g17
(g18
(I0
tp891
g20
tp892
Rp893
(I1
(I1
tp894
g26
I00
S'\xfe\xff\x7f?'
p895
tp896
b(lp897
g32
atp898
s(g12
g3
(g7
S'.\x00\x00\x00'
p899
tp900
Rp901
tp902
(g17
(g18
(I0
tp903
g20
tp904
Rp905
(I1
(I1
tp906
g26
I00
S'6Z=?'
p907
tp908
b(lp909
g32
atp910
s(g12
g3
(g7
S'Q\x00\x00\x00'
p911
tp912
Rp913
tp914
(g17
(g18
(I0
tp915
g20
tp916
Rp917
(I1
(I1
tp918
g26
I00
S'{\xfa\x7f?'
p919
tp920
b(lp921
g32
atp922
s(g12
g3
(g7
S'\x1f\x00\x00\x00'
p923
tp924
Rp925
tp926
(g17
(g18
(I0
tp927
g20
tp928
Rp929
(I1
(I1
tp930
g26
I00
S'\xf2\xdd\x13?'
p931
tp932
b(lp933
g237
atp934
s(g12
g3
(g7
S'D\x00\x00\x00'
p935
tp936
Rp937
tp938
(g17
(g18
(I0
tp939
g20
tp940
Rp941
(I1
(I1
tp942
g26
I00
S'\xb4\xf1\x7f?'
p943
tp944
b(lp945
g32
atp946
s(g12
g3
(g7
S'\x02\x00\x00\x00'
p947
tp948
Rp949
tp950
(g17
(g18
(I0
tp951
g20
tp952
Rp953
(I1
(I1
tp954
g26
I00
S'\x87\xff\x7f?'
p955
tp956
b(lp957
g32
atp958
s(g12
g3
(g7
S'w\x00\x00\x00'
p959
tp960
Rp961
tp962
(g17
(g18
(I0
tp963
g20
tp964
Rp965
(I1
(I1
tp966
g26
I00
S'\x00\x00\x80?'
p967
tp968
b(lp969
g32
atp970
s(g12
g3
(g7
S'\x9b\x00\x00\x00'
p971
tp972
Rp973
tp974
(g17
(g18
(I0
tp975
g20
tp976
Rp977
(I1
(I1
tp978
g26
I00
S'\xda\xe9\x7f?'
p979
tp980
b(lp981
g237
atp982
s(g12
g3
(g7
S'5\x00\x00\x00'
p983
tp984
Rp985
tp986
(g17
(g18
(I0
tp987
g20
tp988
Rp989
(I1
(I1
tp990
g26
I00
S'f\xdb\x7f?'
p991
tp992
b(lp993
g32
atp994
s(g12
g3
(g7
S'z\x00\x00\x00'
p995
tp996
Rp997
tp998
(g17
(g18
(I0
tp999
g20
tp1000
Rp1001
(I1
(I1
tp1002
g26
I00
S'\x00\x00\x80?'
p1003
tp1004
b(lp1005
g32
atp1006
s(g12
g3
(g7
S'\x8e\x00\x00\x00'
p1007
tp1008
Rp1009
tp1010
(g17
(g18
(I0
tp1011
g20
tp1012
Rp1013
(I1
(I1
tp1014
g26
I00
S'\n!7?'
p1015
tp1016
b(lp1017
g32
atp1018
s(g12
g3
(g7
S'8\x00\x00\x00'
p1019
tp1020
Rp1021
tp1022
(g17
(g18
(I0
tp1023
g20
tp1024
Rp1025
(I1
(I1
tp1026
g26
I00
S'Z\xec\x7f?'
p1027
tp1028
b(lp1029
g32
atp1030
s(g12
g3
(g7
S'm\x00\x00\x00'
p1031
tp1032
Rp1033
tp1034
(g17
(g18
(I0
tp1035
g20
tp1036
Rp1037
(I1
(I1
tp1038
g26
I00
S'\x00\x00\x80?'
p1039
tp1040
b(lp1041
g32
atp1042
s(g12
g3
(g7
S'+\x00\x00\x00'
p1043
tp1044
Rp1045
tp1046
(g17
(g18
(I0
tp1047
g20
tp1048
Rp1049
(I1
(I1
tp1050
g26
I00
S'\xb5\xa2&?'
p1051
tp1052
b(lp1053
g32
atp1054
s(g12
g3
(g7
S'^\x00\x00\x00'
p1055
tp1056
Rp1057
tp1058
(g17
(g18
(I0
tp1059
g20
tp1060
Rp1061
(I1
(I1
tp1062
g26
I00
S'\xfa\xff\x7f?'
p1063
tp1064
b(lp1065
g32
atp1066
s(g12
g3
(g7
S'\x1c\x00\x00\x00'
p1067
tp1068
Rp1069
tp1070
(g17
(g18
(I0
tp1071
g20
tp1072
Rp1073
(I1
(I1
tp1074
g26
I00
S'\x06\x9b\x00?'
p1075
tp1076
b(lp1077
g237
atp1078
s(g12
g3
(g7
S'A\x00\x00\x00'
p1079
tp1080
Rp1081
tp1082
(g17
(g18
(I0
tp1083
g20
tp1084
Rp1085
(I1
(I1
tp1086
g26
I00
S'\x8b\xf5\x7f?'
p1087
tp1088
b(lp1089
g32
atp1090
s(g12
g3
(g7
S'\x95\x00\x00\x00'
p1091
tp1092
Rp1093
tp1094
(g17
(g18
(I0
tp1095
g20
tp1096
Rp1097
(I1
(I1
tp1098
g26
I00
S'\xac\xb0\x7f?'
p1099
tp1100
b(lp1101
g237
atp1102
s(g12
g3
(g7
S'\x0f\x00\x00\x00'
p1103
tp1104
Rp1105
tp1106
(g17
(g18
(I0
tp1107
g20
tp1108
Rp1109
(I1
(I1
tp1110
g26
I00
S'\xab\xd3\x7f?'
p1111
tp1112
b(lp1113
g32
atp1114
s(g12
g3
(g7
S't\x00\x00\x00'
p1115
tp1116
Rp1117
tp1118
(g17
(g18
(I0
tp1119
g20
tp1120
Rp1121
(I1
(I1
tp1122
g26
I00
S'\x00\x00\x80?'
p1123
tp1124
b(lp1125
g32
atp1126
s(g12
g3
(g7
S'\x98\x00\x00\x00'
p1127
tp1128
Rp1129
tp1130
(g17
(g18
(I0
tp1131
g20
tp1132
Rp1133
(I1
(I1
tp1134
g26
I00
S'\xa2\xff\x7f?'
p1135
tp1136
b(lp1137
g237
atp1138
s(g12
g3
(g7
S'2\x00\x00\x00'
p1139
tp1140
Rp1141
tp1142
(g17
(g18
(I0
tp1143
g20
tp1144
Rp1145
(I1
(I1
tp1146
g26
I00
S'v!\x7f?'
p1147
tp1148
b(lp1149
g32
atp1150
s(g12
g3
(g7
S'g\x00\x00\x00'
p1151
tp1152
Rp1153
tp1154
(g17
(g18
(I0
tp1155
g20
tp1156
Rp1157
(I1
(I1
tp1158
g26
I00
S'\x00\x00\x80?'
p1159
tp1160
b(lp1161
g32
atp1162
s(g12
g3
(g7
S'\x8b\x00\x00\x00'
p1163
tp1164
Rp1165
tp1166
(g17
(g18
(I0
tp1167
g20
tp1168
Rp1169
(I1
(I1
tp1170
g26
I00
S'\xeb\xea\x7f?'
p1171
tp1172
b(lp1173
g32
atp1174
s(g12
g3
(g7
S'%\x00\x00\x00'
p1175
tp1176
Rp1177
tp1178
(g17
(g18
(I0
tp1179
g20
tp1180
Rp1181
(I1
(I1
tp1182
g26
I00
S'X\xcc\x19?'
p1183
tp1184
b(lp1185
g237
atp1186
s(g12
g3
(g7
S'j\x00\x00\x00'
p1187
tp1188
Rp1189
tp1190
(g17
(g18
(I0
tp1191
g20
tp1192
Rp1193
(I1
(I1
tp1194
g26
I00
S'\x00\x00\x80?'
p1195
tp1196
b(lp1197
g32
atp1198
s(g12
g3
(g7
S'(\x00\x00\x00'
p1199
tp1200
Rp1201
tp1202
(g17
(g18
(I0
tp1203
g20
tp1204
Rp1205
(I1
(I1
tp1206
g26
I00
S'\x94yR?'
p1207
tp1208
b(lp1209
g32
atp1210
s(g12
g3
(g7
S'\x16\x00\x00\x00'
p1211
tp1212
Rp1213
tp1214
(g17
(g18
(I0
tp1215
g20
tp1216
Rp1217
(I1
(I1
tp1218
g26
I00
S'({V?'
p1219
tp1220
b(lp1221
g32
atp1222
s(g12
g3
(g7
S'[\x00\x00\x00'
p1223
tp1224
Rp1225
tp1226
(g17
(g18
(I0
tp1227
g20
tp1228
Rp1229
(I1
(I1
tp1230
g26
I00
S' \xff\x7f?'
p1231
tp1232
b(lp1233
g32
atp1234
s(g12
g3
(g7
S'\x19\x00\x00\x00'
p1235
tp1236
Rp1237
tp1238
(g17
(g18
(I0
tp1239
g20
tp1240
Rp1241
(I1
(I1
tp1242
g26
I00
S'\xca\x97:?'
p1243
tp1244
b(lp1245
g237
atp1246
s(g12
g3
(g7
S'N\x00\x00\x00'
p1247
tp1248
Rp1249
tp1250
(g17
(g18
(I0
tp1251
g20
tp1252
Rp1253
(I1
(I1
tp1254
g26
I00
S'O\xb4\x7f?'
p1255
tp1256
b(lp1257
g32
atp1258
s(g12
g3
(g7
S'\x92\x00\x00\x00'
p1259
tp1260
Rp1261
tp1262
(g17
(g18
(I0
tp1263
g20
tp1264
Rp1265
(I1
(I1
tp1266
g26
I00
S'j\x7f)?'
p1267
tp1268
b(lp1269
g237
atp1270
s(g12
g3
(g7
S'\x0c\x00\x00\x00'
p1271
tp1272
Rp1273
tp1274
(g17
(g18
(I0
tp1275
g20
tp1276
Rp1277
(I1
(I1
tp1278
g26
I00
S'\xd6\xfd\x7f?'
p1279
tp1280
b(lp1281
g32
atp1282
s(g12
g3
(g7
S'q\x00\x00\x00'
p1283
tp1284
Rp1285
tp1286
(g17
(g18
(I0
tp1287
g20
tp1288
Rp1289
(I1
(I1
tp1290
g26
I00
S'\x00\x00\x80?'
p1291
tp1292
b(lp1293
g32
atp1294
s(g12
g3
(g7
S'\x85\x00\x00\x00'
p1295
tp1296
Rp1297
tp1298
(g17
(g18
(I0
tp1299
g20
tp1300
Rp1301
(I1
(I1
tp1302
g26
I00
S'f\xf1\x7f?'
p1303
tp1304
b(lp1305
g32
atp1306
s(g12
g3
(g7
S'?\x00\x00\x00'
p1307
tp1308
Rp1309
tp1310
(g17
(g18
(I0
tp1311
g20
tp1312
Rp1313
(I1
(I1
tp1314
g26
I00
S'\xe6\xfe\x7f?'
p1315
tp1316
b(lp1317
g32
atp1318
s(g12
g3
(g7
S'd\x00\x00\x00'
p1319
tp1320
Rp1321
tp1322
(g17
(g18
(I0
tp1323
g20
tp1324
Rp1325
(I1
(I1
tp1326
g26
I00
S'\x00\x00\x80?'
p1327
tp1328
b(lp1329
g32
atp1330
s(g12
g3
(g7
S'\x88\x00\x00\x00'
p1331
tp1332
Rp1333
tp1334
(g17
(g18
(I0
tp1335
g20
tp1336
Rp1337
(I1
(I1
tp1338
g26
I00
S'\xed\xe1\x7f?'
p1339
tp1340
b(lp1341
g32
atp1342
s(g12
g3
(g7
S'"\x00\x00\x00'
p1343
tp1344
Rp1345
tp1346
(g17
(g18
(I0
tp1347
g20
tp1348
Rp1349
(I1
(I1
tp1350
g26
I00
S'6=\r?'
p1351
tp1352
b(lp1353
g32
atp1354
s(g12
g3
(g7
S'U\x00\x00\x00'
p1355
tp1356
Rp1357
tp1358
(g17
(g18
(I0
tp1359
g20
tp1360
Rp1361
(I1
(I1
tp1362
g26
I00
S'\x8e\xf6\x7f?'
p1363
tp1364
b(lp1365
g32
atp1366
s(g12
g3
(g7
S'\x13\x00\x00\x00'
p1367
tp1368
Rp1369
tp1370
(g17
(g18
(I0
tp1371
g20
tp1372
Rp1373
(I1
(I1
tp1374
g26
I00
S'O\xcb}?'
p1375
tp1376
b(lp1377
g32
atp1378
s(g12
g3
(g7
S'X\x00\x00\x00'
p1379
tp1380
Rp1381
tp1382
(g17
(g18
(I0
tp1383
g20
tp1384
Rp1385
(I1
(I1
tp1386
g26
I00
S'\x81\xfe\x7f?'
p1387
tp1388
b(lp1389
g32
atp1390
s(g12
g3
(g7
S'\x06\x00\x00\x00'
p1391
tp1392
Rp1393
tp1394
(g17
(g18
(I0
tp1395
g20
tp1396
Rp1397
(I1
(I1
tp1398
g26
I00
S'\xbc\xf7\x7f?'
p1399
tp1400
b(lp1401
g32
atp1402
s(g12
g3
(g7
S'K\x00\x00\x00'
p1403
tp1404
Rp1405
tp1406
(g17
(g18
(I0
tp1407
g20
tp1408
Rp1409
(I1
(I1
tp1410
g26
I00
S'\x80\xf0\x7f?'
p1411
tp1412
b(lp1413
g32
atp1414
s(g12
g3
(g7
S'\x9f\x00\x00\x00'
p1415
tp1416
Rp1417
tp1418
(g17
(g18
(I0
tp1419
g20
tp1420
Rp1421
(I1
(I1
tp1422
g26
I00
S'g,\t?'
p1423
tp1424
b(lp1425
g237
atp1426
s(g12
g3
(g7
S'\t\x00\x00\x00'
p1427
tp1428
Rp1429
tp1430
(g17
(g18
(I0
tp1431
g20
tp1432
Rp1433
(I1
(I1
tp1434
g26
I00
S'\xd1\xfd\x7f?'
p1435
tp1436
b(lp1437
g32
atp1438
s(g12
g3
(g7
S'~\x00\x00\x00'
p1439
tp1440
Rp1441
tp1442
(g17
(g18
(I0
tp1443
g20
tp1444
Rp1445
(I1
(I1
tp1446
g26
I00
S'\xff\xff\x7f?'
p1447
tp1448
b(lp1449
g32
atp1450
s(g12
g3
(g7
S'\x82\x00\x00\x00'
p1451
tp1452
Rp1453
tp1454
(g17
(g18
(I0
tp1455
g20
tp1456
Rp1457
(I1
(I1
tp1458
g26
I00
S'\xa3\xff\x7f?'
p1459
tp1460
b(lp1461
g32
atp1462
s(g12
g3
(g7
S'<\x00\x00\x00'
p1463
tp1464
Rp1465
tp1466
(g17
(g18
(I0
tp1467
g20
tp1468
Rp1469
(I1
(I1
tp1470
g26
I00
S'\xd5\xfe\x7f?'
p1471
tp1472
b(lp1473
g32
atp1474
s(g12
g3
(g7
S'a\x00\x00\x00'
p1475
tp1476
Rp1477
tp1478
(g17
(g18
(I0
tp1479
g20
tp1480
Rp1481
(I1
(I1
tp1482
g26
I00
S'\xff\xff\x7f?'
p1483
tp1484
b(lp1485
g32
atp1486
s(g12
g3
(g7
S'/\x00\x00\x00'
p1487
tp1488
Rp1489
tp1490
(g17
(g18
(I0
tp1491
g20
tp1492
Rp1493
(I1
(I1
tp1494
g26
I00
S'\x9c\x84G?'
p1495
tp1496
b(lp1497
g32
atp1498
s(g12
g3
(g7
S'R\x00\x00\x00'
p1499
tp1500
Rp1501
tp1502
(g17
(g18
(I0
tp1503
g20
tp1504
Rp1505
(I1
(I1
tp1506
g26
I00
S'\xc7\xf9\x7f?'
p1507
tp1508
b(lp1509
g32
atp1510
s(g12
g3
(g7
S'\x10\x00\x00\x00'
p1511
tp1512
Rp1513
tp1514
(g17
(g18
(I0
tp1515
g20
tp1516
Rp1517
(I1
(I1
tp1518
g26
I00
S'\x9e\x8b\x7f?'
p1519
tp1520
b(lp1521
g32
atp1522
s(g12
g3
(g7
S'E\x00\x00\x00'
p1523
tp1524
Rp1525
tp1526
(g17
(g18
(I0
tp1527
g20
tp1528
Rp1529
(I1
(I1
tp1530
g26
I00
S'p\xe8\x7f?'
p1531
tp1532
b(lp1533
g32
atp1534
s(g12
g3
(g7
S'\x03\x00\x00\x00'
p1535
tp1536
Rp1537
tp1538
(g17
(g18
(I0
tp1539
g20
tp1540
Rp1541
(I1
(I1
tp1542
g26
I00
S'\x9b\xfe\x7f?'
p1543
tp1544
b(lp1545
g32
atp1546
s(g12
g3
(g7
S'H\x00\x00\x00'
p1547
tp1548
Rp1549
tp1550
(g17
(g18
(I0
tp1551
g20
tp1552
Rp1553
(I1
(I1
tp1554
g26
I00
S'\x9c\xf9\x7f?'
p1555
tp1556
b(lp1557
g32
atp1558
s(g12
g3
(g7
S'\x9c\x00\x00\x00'
p1559
tp1560
Rp1561
tp1562
(g17
(g18
(I0
tp1563
g20
tp1564
Rp1565
(I1
(I1
tp1566
g26
I00
S'\xbc\xb2\x7f?'
p1567
tp1568
b(lp1569
g237
atp1570
s(g12
g3
(g7
S'6\x00\x00\x00'
p1571
tp1572
Rp1573
tp1574
(g17
(g18
(I0
tp1575
g20
tp1576
Rp1577
(I1
(I1
tp1578
g26
I00
S'\x8e\xd1\x7f?'
p1579
tp1580
b(lp1581
g32
atp1582
s(g12
g3
(g7
S'{\x00\x00\x00'
p1583
tp1584
Rp1585
tp1586
(g17
(g18
(I0
tp1587
g20
tp1588
Rp1589
(I1
(I1
tp1590
g26
I00
S'\x00\x00\x80?'
p1591
tp1592
b(lp1593
g32
atp1594
s(g12
g3
(g7
S'\x8f\x00\x00\x00'
p1595
tp1596
Rp1597
tp1598
(g17
(g18
(I0
tp1599
g20
tp1600
Rp1601
(I1
(I1
tp1602
g26
I00
S'\x03\xe9\x0e?'
p1603
tp1604
b(lp1605
g32
atp1606
s(g12
g3
(g7
S'9\x00\x00\x00'
p1607
tp1608
Rp1609
tp1610
(g17
(g18
(I0
tp1611
g20
tp1612
Rp1613
(I1
(I1
tp1614
g26
I00
S'*\xf2\x7f?'
p1615
tp1616
b(lp1617
g32
atp1618
s(g12
g3
(g7
S'n\x00\x00\x00'
p1619
tp1620
Rp1621
tp1622
(g17
(g18
(I0
tp1623
g20
tp1624
Rp1625
(I1
(I1
tp1626
g26
I00
S'\x00\x00\x80?'
p1627
tp1628
b(lp1629
g32
atp1630
s(g12
g3
(g7
S',\x00\x00\x00'
p1631
tp1632
Rp1633
tp1634
(g17
(g18
(I0
tp1635
g20
tp1636
Rp1637
(I1
(I1
tp1638
g26
I00
S'\x02\xe5]?'
p1639
tp1640
b(lp1641
g32
atp1642
s(g12
g3
(g7
S'_\x00\x00\x00'
p1643
tp1644
Rp1645
tp1646
(g17
(g18
(I0
tp1647
g20
tp1648
Rp1649
(I1
(I1
tp1650
g26
I00
S'\xfd\xff\x7f?'
p1651
tp1652
b(lp1653
g32
atp1654
s(g12
g3
(g7
S'\x1d\x00\x00\x00'
p1655
tp1656
Rp1657
tp1658
(g17
(g18
(I0
tp1659
g20
tp1660
Rp1661
(I1
(I1
tp1662
g26
I00
S':\x17"?'
p1663
tp1664
b(lp1665
g237
atp1666
s(g12
g3
(g7
S'B\x00\x00\x00'
p1667
tp1668
Rp1669
tp1670
(g17
(g18
(I0
tp1671
g20
tp1672
Rp1673
(I1
(I1
tp1674
g26
I00
S'\x00\xd9\x7f?'
p1675
tp1676
b(lp1677
g32
atp1678
s(g12
g3
(g7
S'\x96\x00\x00\x00'
p1679
tp1680
Rp1681
tp1682
(g17
(g18
(I0
tp1683
g20
tp1684
Rp1685
(I1
(I1
tp1686
g26
I00
S'Z\xe4\x7f?'
p1687
tp1688
b(lp1689
g237
atp1690
s(g12
g3
(g7
S'\x00\x00\x00\x00'
p1691
tp1692
Rp1693
tp1694
(g17
(g18
(I0
tp1695
g20
tp1696
Rp1697
(I1
(I1
tp1698
g26
I00
S'\x8f\xff\x7f?'
p1699
tp1700
b(lp1701
g32
atp1702
s(g12
g3
(g7
S'u\x00\x00\x00'
p1703
tp1704
Rp1705
tp1706
(g17
(g18
(I0
tp1707
g20
tp1708
Rp1709
(I1
(I1
tp1710
g26
I00
S'\x00\x00\x80?'
p1711
tp1712
b(lp1713
g32
atp1714
s(g12
g3
(g7
S'\x99\x00\x00\x00'
p1715
tp1716
Rp1717
tp1718
(g17
(g18
(I0
tp1719
g20
tp1720
Rp1721
(I1
(I1
tp1722
g26
I00
S'\xc8\xfe\x7f?'
p1723
tp1724
b(lp1725
g237
atp1726
s(g12
g3
(g7
S'3\x00\x00\x00'
p1727
tp1728
Rp1729
tp1730
(g17
(g18
(I0
tp1731
g20
tp1732
Rp1733
(I1
(I1
tp1734
g26
I00
S'@_\x7f?'
p1735
tp1736
b(lp1737
g32
atp1738
s(g12
g3
(g7
S'x\x00\x00\x00'
p1739
tp1740
Rp1741
tp1742
(g17
(g18
(I0
tp1743
g20
tp1744
Rp1745
(I1
(I1
tp1746
g26
I00
S'\x00\x00\x80?'
p1747
tp1748
b(lp1749
g32
atp1750
s(g12
g3
(g7
S'\x8c\x00\x00\x00'
p1751
tp1752
Rp1753
tp1754
(g17
(g18
(I0
tp1755
g20
tp1756
Rp1757
(I1
(I1
tp1758
g26
I00
S'S\x9b\x7f?'
p1759
tp1760
b(lp1761
g32
atp1762
s(g12
g3
(g7
S'&\x00\x00\x00'
p1763
tp1764
Rp1765
tp1766
(g17
(g18
(I0
tp1767
g20
tp1768
Rp1769
(I1
(I1
tp1770
g26
I00
S'\x045*?'
p1771
tp1772
b(lp1773
g32
atp1774
s(g12
g3
(g7
S'k\x00\x00\x00'
p1775
tp1776
Rp1777
tp1778
(g17
(g18
(I0
tp1779
g20
tp1780
Rp1781
(I1
(I1
tp1782
g26
I00
S'\x00\x00\x80?'
p1783
tp1784
b(lp1785
g32
atp1786
s(g12
g3
(g7
S')\x00\x00\x00'
p1787
tp1788
Rp1789
tp1790
(g17
(g18
(I0
tp1791
g20
tp1792
Rp1793
(I1
(I1
tp1794
g26
I00
S'\\\xdc9?'
p1795
tp1796
b(lp1797
g32
atp1798
s(g12
g3
(g7
S'\x17\x00\x00\x00'
p1799
tp1800
Rp1801
tp1802
(g17
(g18
(I0
tp1803
g20
tp1804
Rp1805
(I1
(I1
tp1806
g26
I00
S'\xa8,??'
p1807
tp1808
b(lp1809
g32
atp1810
s(g12
g3
(g7
S'\\\x00\x00\x00'
p1811
tp1812
Rp1813
tp1814
(g17
(g18
(I0
tp1815
g20
tp1816
Rp1817
(I1
(I1
tp1818
g26
I00
S'\xaf\xff\x7f?'
p1819
tp1820
b(lp1821
g32
atp1822
s(g12
g3
(g7
S'\x1a\x00\x00\x00'
p1823
tp1824
Rp1825
tp1826
(g17
(g18
(I0
tp1827
g20
tp1828
Rp1829
(I1
(I1
tp1830
g26
I00
S"'\x87\x1c?"
p1831
tp1832
b(lp1833
g237
atp1834
s(g12
g3
(g7
S'O\x00\x00\x00'
p1835
tp1836
Rp1837
tp1838
(g17
(g18
(I0
tp1839
g20
tp1840
Rp1841
(I1
(I1
tp1842
g26
I00
S'\x10\xed\x7f?'
p1843
tp1844
b(lp1845
g32
atp1846
s(g12
g3
(g7
S'\x93\x00\x00\x00'
p1847
tp1848
Rp1849
tp1850
(g17
(g18
(I0
tp1851
g20
tp1852
Rp1853
(I1
(I1
tp1854
g26
I00
S'6\xcbx?'
p1855
tp1856
b(lp1857
g237
atp1858
s(g12
g3
(g7
S'\r\x00\x00\x00'
p1859
tp1860
Rp1861
tp1862
(g17
(g18
(I0
tp1863
g20
tp1864
Rp1865
(I1
(I1
tp1866
g26
I00
S'\xe5\xfa\x7f?'
p1867
tp1868
b(lp1869
g32
atp1870
s(g12
g3
(g7
S'r\x00\x00\x00'
p1871
tp1872
Rp1873
tp1874
(g17
(g18
(I0
tp1875
g20
tp1876
Rp1877
(I1
(I1
tp1878
g26
I00
S'\x00\x00\x80?'
p1879
tp1880
b(lp1881
g32
atp1882
s(g12
g3
(g7
S'\x86\x00\x00\x00'
p1883
tp1884
Rp1885
tp1886
(g17
(g18
(I0
tp1887
g20
tp1888
Rp1889
(I1
(I1
tp1890
g26
I00
S'\x82\xdd\x7f?'
p1891
tp1892
b(lp1893
g32
atp1894
s(g12
g3
(g7
S'0\x00\x00\x00'
p1895
tp1896
Rp1897
tp1898
(g17
(g18
(I0
tp1899
g20
tp1900
Rp1901
(I1
(I1
tp1902
g26
I00
S'&Ju?'
p1903
tp1904
b(lp1905
g32
atp1906
s(g12
g3
(g7
S'e\x00\x00\x00'
p1907
tp1908
Rp1909
tp1910
(g17
(g18
(I0
tp1911
g20
tp1912
Rp1913
(I1
(I1
tp1914
g26
I00
S'\x00\x00\x80?'
p1915
tp1916
b(lp1917
g32
atp1918
s(g12
g3
(g7
S'\x89\x00\x00\x00'
p1919
tp1920
Rp1921
tp1922
(g17
(g18
(I0
tp1923
g20
tp1924
Rp1925
(I1
(I1
tp1926
g26
I00
S'\x94\xf2\x7f?'
p1927
tp1928
b(lp1929
g32
atp1930
s(g12
g3
(g7
S'#\x00\x00\x00'
p1931
tp1932
Rp1933
tp1934
(g17
(g18
(I0
tp1935
g20
tp1936
Rp1937
(I1
(I1
tp1938
g26
I00
S'\x1f\xe0\x03?'
p1939
tp1940
b(lp1941
g32
atp1942
s(g12
g3
(g7
S'h\x00\x00\x00'
p1943
tp1944
Rp1945
tp1946
(g17
(g18
(I0
tp1947
g20
tp1948
Rp1949
(I1
(I1
tp1950
g26
I00
S'\x00\x00\x80?'
p1951
tp1952
b(lp1953
g32
atp1954
ss.