(dp0
S'result'
p1
(dp2
(cnumpy.core.multiarray
scalar
p3
(cnumpy
dtype
p4
(S'i4'
p5
I0
I1
tp6
Rp7
(I3
S'<'
p8
NNNI-1
I-1
I0
tp9
bS'\x00\x00\x00\x00'
p10
tp11
Rp12
g3
(g7
S'\x1b\x00\x00\x00'
p13
tp14
Rp15
tp16
(cnumpy.core.multiarray
_reconstruct
p17
(cnumpy
ndarray
p18
(I0
tp19
S'b'
p20
tp21
Rp22
(I1
(I1
tp23
g4
(S'f4'
p24
I0
I1
tp25
Rp26
(I3
S'<'
p27
NNNI-1
I-1
I0
tp28
bI00
S'\xe8\nl?'
p29
tp30
b(lp31
S'car'
p32
atp33
s(g12
g3
(g7
S'5\x00\x00\x00'
p34
tp35
Rp36
tp37
(g17
(g18
(I0
tp38
g20
tp39
Rp40
(I1
(I1
tp41
g26
I00
S'\xf1\xdd\x7f?'
p42
tp43
b(lp44
S'others'
p45
atp46
s(g12
g3
(g7
S'/\x00\x00\x00'
p47
tp48
Rp49
tp50
(g17
(g18
(I0
tp51
g20
tp52
Rp53
(I1
(I1
tp54
g26
I00
S'\x10\xa3\x7f?'
p55
tp56
b(lp57
g45
atp58
s(g12
g3
(g7
S'\x14\x00\x00\x00'
p59
tp60
Rp61
tp62
(g17
(g18
(I0
tp63
g20
tp64
Rp65
(I1
(I1
tp66
g26
I00
S"'\xc7u?"
p67
tp68
b(lp69
g32
atp70
s(g12
g3
(g7
S'\x0e\x00\x00\x00'
p71
tp72
Rp73
tp74
(g17
(g18
(I0
tp75
g20
tp76
Rp77
(I1
(I1
tp78
g26
I00
S'\xeag\x7f?'
p79
tp80
b(lp81
g45
atp82
s(g12
g3
(g7
S'8\x00\x00\x00'
p83
tp84
Rp85
tp86
(g17
(g18
(I0
tp87
g20
tp88
Rp89
(I1
(I1
tp90
g26
I00
S'E\x90\x7f?'
p91
tp92
b(lp93
g45
atp94
s(g12
g3
(g7
S'\x07\x00\x00\x00'
p95
tp96
Rp97
tp98
(g17
(g18
(I0
tp99
g20
tp100
Rp101
(I1
(I1
tp102
g26
I00
S'\xb2\xd2\x7f?'
p103
tp104
b(lp105
g45
atp106
s(g12
g3
(g7
S'1\x00\x00\x00'
p107
tp108
Rp109
tp110
(g17
(g18
(I0
tp111
g20
tp112
Rp113
(I1
(I1
tp114
g26
I00
S'\x7f\xc7\x7f?'
p115
tp116
b(lp117
g45
atp118
s(g12
g3
(g7
S'+\x00\x00\x00'
p119
tp120
Rp121
tp122
(g17
(g18
(I0
tp123
g20
tp124
Rp125
(I1
(I1
tp126
g26
I00
S'r\xf3y?'
p127
tp128
b(lp129
g45
atp130
s(g12
g3
(g7
S'\x10\x00\x00\x00'
p131
tp132
Rp133
tp134
(g17
(g18
(I0
tp135
g20
tp136
Rp137
(I1
(I1
tp138
g26
I00
S'\x98\x11j?'
p139
tp140
b(lp141
g45
atp142
s(g12
g3
(g7
S'\n\x00\x00\x00'
p143
tp144
Rp145
tp146
(g17
(g18
(I0
tp147
g20
tp148
Rp149
(I1
(I1
tp150
g26
I00
S'l\xcf\x7f?'
p151
tp152
b(lp153
g45
atp154
s(g12
g3
(g7
S'$\x00\x00\x00'
p155
tp156
Rp157
tp158
(g17
(g18
(I0
tp159
g20
tp160
Rp161
(I1
(I1
tp162
g26
I00
S'\x84\xb6^?'
p163
tp164
b(lp165
g45
atp166
s(g12
g3
(g7
S'\x03\x00\x00\x00'
p167
tp168
Rp169
tp170
(g17
(g18
(I0
tp171
g20
tp172
Rp173
(I1
(I1
tp174
g26
I00
S'\xf7\xff\x7f?'
p175
tp176
b(lp177
g45
atp178
s(g12
g3
(g7
S'\x1c\x00\x00\x00'
p179
tp180
Rp181
tp182
(g17
(g18
(I0
tp183
g20
tp184
Rp185
(I1
(I1
tp186
g26
I00
S'\x80\xd4`?'
p187
tp188
b(lp189
g32
atp190
s(g12
g3
(g7
S'6\x00\x00\x00'
p191
tp192
Rp193
tp194
(g17
(g18
(I0
tp195
g20
tp196
Rp197
(I1
(I1
tp198
g26
I00
S'K\x91\x7f?'
p199
tp200
b(lp201
g45
atp202
s(g12
g3
(g7
S' \x00\x00\x00'
p203
tp204
Rp205
tp206
(g17
(g18
(I0
tp207
g20
tp208
Rp209
(I1
(I1
tp210
g26
I00
S's\x92\x18?'
p211
tp212
b(lp213
g45
atp214
s(g12
g3
(g7
S'\x15\x00\x00\x00'
p215
tp216
Rp217
tp218
(g17
(g18
(I0
tp219
g20
tp220
Rp221
(I1
(I1
tp222
g26
I00
S'`\xbb~?'
p223
tp224
b(lp225
g32
atp226
s(g12
g3
(g7
S'\x0f\x00\x00\x00'
p227
tp228
Rp229
tp230
(g17
(g18
(I0
tp231
g20
tp232
Rp233
(I1
(I1
tp234
g26
I00
S'"\xf9y?'
p235
tp236
b(lp237
g45
atp238
s(g12
g3
(g7
S'9\x00\x00\x00'
p239
tp240
Rp241
tp242
(g17
(g18
(I0
tp243
g20
tp244
Rp245
(I1
(I1
tp246
g26
I00
S'\x92\x8d\x7f?'
p247
tp248
b(lp249
g45
atp250
s(g12
g3
(g7
S'\x18\x00\x00\x00'
p251
tp252
Rp253
tp254
(g17
(g18
(I0
tp255
g20
tp256
Rp257
(I1
(I1
tp258
g26
I00
S'\x9c:m?'
p259
tp260
b(lp261
g32
atp262
s(g12
g3
(g7
S'2\x00\x00\x00'
p263
tp264
Rp265
tp266
(g17
(g18
(I0
tp267
g20
tp268
Rp269
(I1
(I1
tp270
g26
I00
S'\xfa\xe0\x7f?'
p271
tp272
b(lp273
g45
atp274
s(g12
g3
(g7
S',\x00\x00\x00'
p275
tp276
Rp277
tp278
(g17
(g18
(I0
tp279
g20
tp280
Rp281
(I1
(I1
tp282
g26
I00
S'\xfas~?'
p283
tp284
b(lp285
g45
atp286
s(g12
g3
(g7
S'\x11\x00\x00\x00'
p287
tp288
Rp289
tp290
(g17
(g18
(I0
tp291
g20
tp292
Rp293
(I1
(I1
tp294
g26
I00
S'\xfe\xfe\x14?'
p295
tp296
b(lp297
g32
atp298
s(g12
g3
(g7
S'\x0b\x00\x00\x00'
p299
tp300
Rp301
tp302
(g17
(g18
(I0
tp303
g20
tp304
Rp305
(I1
(I1
tp306
g26
I00
S'\xb0y~?'
p307
tp308
b(lp309
g45
atp310
s(g12
g3
(g7
S'%\x00\x00\x00'
p311
tp312
Rp313
tp314
(g17
(g18
(I0
tp315
g20
tp316
Rp317
(I1
(I1
tp318
g26
I00
S'\xcejd?'
p319
tp320
b(lp321
g45
atp322
s(g12
g3
(g7
S'\x04\x00\x00\x00'
p323
tp324
Rp325
tp326
(g17
(g18
(I0
tp327
g20
tp328
Rp329
(I1
(I1
tp330
g26
I00
S'c\xff\x7f?'
p331
tp332
b(lp333
g45
atp334
s(g12
g3
(g7
S'(\x00\x00\x00'
p335
tp336
Rp337
tp338
(g17
(g18
(I0
tp339
g20
tp340
Rp341
(I1
(I1
tp342
g26
I00
S'\xf0\xc4\\?'
p343
tp344
b(lp345
g45
atp346
s(g12
g3
(g7
S'\x1d\x00\x00\x00'
p347
tp348
Rp349
tp350
(g17
(g18
(I0
tp351
g20
tp352
Rp353
(I1
(I1
tp354
g26
I00
S'x\x0fs?'
p355
tp356
b(lp357
g32
atp358
s(g12
g3
(g7
S'7\x00\x00\x00'
p359
tp360
Rp361
tp362
(g17
(g18
(I0
tp363
g20
tp364
Rp365
(I1
(I1
tp366
g26
I00
S'\x13|\x7f?'
p367
tp368
b(lp369
g45
atp370
s(g12
g3
(g7
S'!\x00\x00\x00'
p371
tp372
Rp373
tp374
(g17
(g18
(I0
tp375
g20
tp376
Rp377
(I1
(I1
tp378
g26
I00
S'\x84\xdc\x1e?'
p379
tp380
b(lp381
g45
atp382
s(g12
g3
(g7
S'\x16\x00\x00\x00'
p383
tp384
Rp385
tp386
(g17
(g18
(I0
tp387
g20
tp388
Rp389
(I1
(I1
tp390
g26
I00
S'\\\x86}?'
p391
tp392
b(lp393
g32
atp394
s(g12
g3
(g7
S'\x00\x00\x00\x00'
p395
tp396
Rp397
tp398
(g17
(g18
(I0
tp399
g20
tp400
Rp401
(I1
(I1
tp402
g26
I00
S'\x00\x00\x80?'
p403
tp404
b(lp405
g45
atp406
s(g12
g3
(g7
S':\x00\x00\x00'
p407
tp408
Rp409
tp410
(g17
(g18
(I0
tp411
g20
tp412
Rp413
(I1
(I1
tp414
g26
I00
S'\xf6\\~?'
p415
tp416
b(lp417
g45
atp418
s(g12
g3
(g7
S'\x19\x00\x00\x00'
p419
tp420
Rp421
tp422
(g17
(g18
(I0
tp423
g20
tp424
Rp425
(I1
(I1
tp426
g26
I00
S'\xd4&p?'
p427
tp428
b(lp429
g32
atp430
s(g12
g3
(g7
S'3\x00\x00\x00'
p431
tp432
Rp433
tp434
(g17
(g18
(I0
tp435
g20
tp436
Rp437
(I1
(I1
tp438
g26
I00
S'(\xe6\x7f?'
p439
tp440
b(lp441
g45
atp442
s(g12
g3
(g7
S'-\x00\x00\x00'
p443
tp444
Rp445
tp446
(g17
(g18
(I0
tp447
g20
tp448
Rp449
(I1
(I1
tp450
g26
I00
S'\x10\xc0~?'
p451
tp452
b(lp453
g45
atp454
s(g12
g3
(g7
S'\x12\x00\x00\x00'
p455
tp456
Rp457
tp458
(g17
(g18
(I0
tp459
g20
tp460
Rp461
(I1
(I1
tp462
g26
I00
S'\nMP?'
p463
tp464
b(lp465
g32
atp466
s(g12
g3
(g7
S'\x0c\x00\x00\x00'
p467
tp468
Rp469
tp470
(g17
(g18
(I0
tp471
g20
tp472
Rp473
(I1
(I1
tp474
g26
I00
S'\x94n\x7f?'
p475
tp476
b(lp477
g45
atp478
s(g12
g3
(g7
S'&\x00\x00\x00'
p479
tp480
Rp481
tp482
(g17
(g18
(I0
tp483
g20
tp484
Rp485
(I1
(I1
tp486
g26
I00
S'4tK?'
p487
tp488
b(lp489
g45
atp490
s(g12
g3
(g7
S'\x05\x00\x00\x00'
p491
tp492
Rp493
tp494
(g17
(g18
(I0
tp495
g20
tp496
Rp497
(I1
(I1
tp498
g26
I00
S'\x7f\xff\x7f?'
p499
tp500
b(lp501
g45
atp502
s(g12
g3
(g7
S')\x00\x00\x00'
p503
tp504
Rp505
tp506
(g17
(g18
(I0
tp507
g20
tp508
Rp509
(I1
(I1
tp510
g26
I00
S'|R`?'
p511
tp512
b(lp513
g45
atp514
s(g12
g3
(g7
S'\x1e\x00\x00\x00'
p515
tp516
Rp517
tp518
(g17
(g18
(I0
tp519
g20
tp520
Rp521
(I1
(I1
tp522
g26
I00
S'~\xd3f?'
p523
tp524
b(lp525
g32
atp526
s(g12
g3
(g7
S'\x08\x00\x00\x00'
p527
tp528
Rp529
tp530
(g17
(g18
(I0
tp531
g20
tp532
Rp533
(I1
(I1
tp534
g26
I00
S"'\x89~?"
p535
tp536
b(lp537
g45
atp538
s(g12
g3
(g7
S'"\x00\x00\x00'
p539
tp540
Rp541
tp542
(g17
(g18
(I0
tp543
g20
tp544
Rp545
(I1
(I1
tp546
g26
I00
S'(\x9aC?'
p547
tp548
b(lp549
g45
atp550
s(g12
g3
(g7
S'\x17\x00\x00\x00'
p551
tp552
Rp553
tp554
(g17
(g18
(I0
tp555
g20
tp556
Rp557
(I1
(I1
tp558
g26
I00
S'|kt?'
p559
tp560
b(lp561
g32
atp562
s(g12
g3
(g7
S'\x01\x00\x00\x00'
p563
tp564
Rp565
tp566
(g17
(g18
(I0
tp567
g20
tp568
Rp569
(I1
(I1
tp570
g26
I00
S'\x00\x00\x80?'
p571
tp572
b(lp573
g45
atp574
s(g12
g3
(g7
S';\x00\x00\x00'
p575
tp576
Rp577
tp578
(g17
(g18
(I0
tp579
g20
tp580
Rp581
(I1
(I1
tp582
g26
I00
S'\x89\xb8~?'
p583
tp584
b(lp585
g45
atp586
s(g12
g3
(g7
S'\x1a\x00\x00\x00'
p587
tp588
Rp589
tp590
(g17
(g18
(I0
tp591
g20
tp592
Rp593
(I1
(I1
tp594
g26
I00
S'N\xccf?'
p595
tp596
b(lp597
g32
atp598
s(g12
g3
(g7
S'4\x00\x00\x00'
p599
tp600
Rp601
tp602
(g17
(g18
(I0
tp603
g20
tp604
Rp605
(I1
(I1
tp606
g26
I00
S'\xe8\xec\x7f?'
p607
tp608
b(lp609
g45
atp610
s(g12
g3
(g7
S'.\x00\x00\x00'
p611
tp612
Rp613
tp614
(g17
(g18
(I0
tp615
g20
tp616
Rp617
(I1
(I1
tp618
g26
I00
S'[\xda~?'
p619
tp620
b(lp621
g45
atp622
s(g12
g3
(g7
S'\x13\x00\x00\x00'
p623
tp624
Rp625
tp626
(g17
(g18
(I0
tp627
g20
tp628
Rp629
(I1
(I1
tp630
g26
I00
S'\x16\xafa?'
p631
tp632
b(lp633
g32
atp634
s(g12
g3
(g7
S'\r\x00\x00\x00'
p635
tp636
Rp637
tp638
(g17
(g18
(I0
tp639
g20
tp640
Rp641
(I1
(I1
tp642
g26
I00
S'^c\x7f?'
p643
tp644
b(lp645
g45
atp646
s(g12
g3
(g7
S"'\x00\x00\x00"
p647
tp648
Rp649
tp650
(g17
(g18
(I0
tp651
g20
tp652
Rp653
(I1
(I1
tp654
g26
I00
S'&\x00B?'
p655
tp656
b(lp657
g45
atp658
s(g12
g3
(g7
S'\x06\x00\x00\x00'
p659
tp660
Rp661
tp662
(g17
(g18
(I0
tp663
g20
tp664
Rp665
(I1
(I1
tp666
g26
I00
S'\xc4\xfc\x7f?'
p667
tp668
b(lp669
g45
atp670
s(g12
g3
(g7
S'0\x00\x00\x00'
p671
tp672
Rp673
tp674
(g17
(g18
(I0
tp675
g20
tp676
Rp677
(I1
(I1
tp678
g26
I00
S'\xaa\xa5\x7f?'
p679
tp680
b(lp681
g45
atp682
s(g12
g3
(g7
S'*\x00\x00\x00'
p683
tp684
Rp685
tp686
(g17
(g18
(I0
tp687
g20
tp688
Rp689
(I1
(I1
tp690
g26
I00
S'\xf8\x8cm?'
p691
tp692
b(lp693
g45
atp694
s(g12
g3
(g7
S'\x1f\x00\x00\x00'
p695
tp696
Rp697
tp698
(g17
(g18
(I0
tp699
g20
tp700
Rp701
(I1
(I1
tp702
g26
I00
S'\x922"?'
p703
tp704
b(lp705
g32
atp706
s(g12
g3
(g7
S'\t\x00\x00\x00'
p707
tp708
Rp709
tp710
(g17
(g18
(I0
tp711
g20
tp712
Rp713
(I1
(I1
tp714
g26
I00
S'\x8a\xf1|?'
p715
tp716
b(lp717
g45
atp718
s(g12
g3
(g7
S'#\x00\x00\x00'
p719
tp720
Rp721
tp722
(g17
(g18
(I0
tp723
g20
tp724
Rp725
(I1
(I1
tp726
g26
I00
S'\x86\xd4\\?'
p727
tp728
b(lp729
g45
atp730
s(g12
g3
(g7
S'\x02\x00\x00\x00'
p731
tp732
Rp733
tp734
(g17
(g18
(I0
tp735
g20
tp736
Rp737
(I1
(I1
tp738
g26
I00
S'\xff\xff\x7f?'
p739
tp740
b(lp741
g45
atp742
s(g12
g3
(g7
S'<\x00\x00\x00'
p743
tp744
Rp745
tp746
(g17
(g18
(I0
tp747
g20
tp748
Rp749
(I1
(I1
tp750
g26
I00
S'\xa4^\x7f?'
p751
tp752
b(lp753
g45
atp754
ss.