(dp0
S'result'
p1
(dp2
(cnumpy.core.multiarray
scalar
p3
(cnumpy
dtype
p4
(S'i4'
p5
I0
I1
tp6
Rp7
(I3
S'<'
p8
NNNI-1
I-1
I0
tp9
bS'\x00\x00\x00\x00'
p10
tp11
Rp12
g3
(g7
S'\x1b\x00\x00\x00'
p13
tp14
Rp15
tp16
(cnumpy.core.multiarray
_reconstruct
p17
(cnumpy
ndarray
p18
(I0
tp19
S'b'
p20
tp21
Rp22
(I1
(I1
tp23
g4
(S'f4'
p24
I0
I1
tp25
Rp26
(I3
S'<'
p27
NNNI-1
I-1
I0
tp28
bI00
S'\xb4\xff\x7f?'
p29
tp30
b(lp31
S'others'
p32
atp33
s(g12
g3
(g7
S'\x14\x00\x00\x00'
p34
tp35
Rp36
tp37
(g17
(g18
(I0
tp38
g20
tp39
Rp40
(I1
(I1
tp41
g26
I00
S'\xb9\xff\x7f?'
p42
tp43
b(lp44
g32
atp45
s(g12
g3
(g7
S'\x0e\x00\x00\x00'
p46
tp47
Rp48
tp49
(g17
(g18
(I0
tp50
g20
tp51
Rp52
(I1
(I1
tp53
g26
I00
S'\xd5\xff\x7f?'
p54
tp55
b(lp56
g32
atp57
s(g12
g3
(g7
S'\x07\x00\x00\x00'
p58
tp59
Rp60
tp61
(g17
(g18
(I0
tp62
g20
tp63
Rp64
(I1
(I1
tp65
g26
I00
S'\xf8\xff\x7f?'
p66
tp67
b(lp68
g32
atp69
s(g12
g3
(g7
S'\x10\x00\x00\x00'
p70
tp71
Rp72
tp73
(g17
(g18
(I0
tp74
g20
tp75
Rp76
(I1
(I1
tp77
g26
I00
S'\xdb\xff\x7f?'
p78
tp79
b(lp80
g32
atp81
s(g12
g3
(g7
S'\n\x00\x00\x00'
p82
tp83
Rp84
tp85
(g17
(g18
(I0
tp86
g20
tp87
Rp88
(I1
(I1
tp89
g26
I00
S'\xef\xff\x7f?'
p90
tp91
b(lp92
g32
atp93
s(g12
g3
(g7
S'\x03\x00\x00\x00'
p94
tp95
Rp96
tp97
(g17
(g18
(I0
tp98
g20
tp99
Rp100
(I1
(I1
tp101
g26
I00
S'\xf2\xff\x7f?'
p102
tp103
b(lp104
g32
atp105
s(g12
g3
(g7
S'\x1c\x00\x00\x00'
p106
tp107
Rp108
tp109
(g17
(g18
(I0
tp110
g20
tp111
Rp112
(I1
(I1
tp113
g26
I00
S'\xb2\xff\x7f?'
p114
tp115
b(lp116
g32
atp117
s(g12
g3
(g7
S'\x15\x00\x00\x00'
p118
tp119
Rp120
tp121
(g17
(g18
(I0
tp122
g20
tp123
Rp124
(I1
(I1
tp125
g26
I00
S'B\xff\x7f?'
p126
tp127
b(lp128
g32
atp129
s(g12
g3
(g7
S'\x0f\x00\x00\x00'
p130
tp131
Rp132
tp133
(g17
(g18
(I0
tp134
g20
tp135
Rp136
(I1
(I1
tp137
g26
I00
S'\xb5\xff\x7f?'
p138
tp139
b(lp140
g32
atp141
s(g12
g3
(g7
S'\x18\x00\x00\x00'
p142
tp143
Rp144
tp145
(g17
(g18
(I0
tp146
g20
tp147
Rp148
(I1
(I1
tp149
g26
I00
S'\x84\xff\x7f?'
p150
tp151
b(lp152
g32
atp153
s(g12
g3
(g7
S'\x11\x00\x00\x00'
p154
tp155
Rp156
tp157
(g17
(g18
(I0
tp158
g20
tp159
Rp160
(I1
(I1
tp161
g26
I00
S'\xc5\xff\x7f?'
p162
tp163
b(lp164
g32
atp165
s(g12
g3
(g7
S'\x0b\x00\x00\x00'
p166
tp167
Rp168
tp169
(g17
(g18
(I0
tp170
g20
tp171
Rp172
(I1
(I1
tp173
g26
I00
S'\xdc\xff\x7f?'
p174
tp175
b(lp176
g32
atp177
s(g12
g3
(g7
S'\x04\x00\x00\x00'
p178
tp179
Rp180
tp181
(g17
(g18
(I0
tp182
g20
tp183
Rp184
(I1
(I1
tp185
g26
I00
S'\xf2\xff\x7f?'
p186
tp187
b(lp188
g32
atp189
s(g12
g3
(g7
S'\x1d\x00\x00\x00'
p190
tp191
Rp192
tp193
(g17
(g18
(I0
tp194
g20
tp195
Rp196
(I1
(I1
tp197
g26
I00
S'\x80\xff\x7f?'
p198
tp199
b(lp200
g32
atp201
s(g12
g3
(g7
S'\x16\x00\x00\x00'
p202
tp203
Rp204
tp205
(g17
(g18
(I0
tp206
g20
tp207
Rp208
(I1
(I1
tp209
g26
I00
S'5\xff\x7f?'
p210
tp211
b(lp212
g32
atp213
s(g12
g3
(g7
S'\x00\x00\x00\x00'
p214
tp215
Rp216
tp217
(g17
(g18
(I0
tp218
g20
tp219
Rp220
(I1
(I1
tp221
g26
I00
S'\xec\xff\x7f?'
p222
tp223
b(lp224
g32
atp225
s(g12
g3
(g7
S'\x19\x00\x00\x00'
p226
tp227
Rp228
tp229
(g17
(g18
(I0
tp230
g20
tp231
Rp232
(I1
(I1
tp233
g26
I00
S'\xc9\xff\x7f?'
p234
tp235
b(lp236
g32
atp237
s(g12
g3
(g7
S'\x12\x00\x00\x00'
p238
tp239
Rp240
tp241
(g17
(g18
(I0
tp242
g20
tp243
Rp244
(I1
(I1
tp245
g26
I00
S'\xc1\xff\x7f?'
p246
tp247
b(lp248
g32
atp249
s(g12
g3
(g7
S'\x0c\x00\x00\x00'
p250
tp251
Rp252
tp253
(g17
(g18
(I0
tp254
g20
tp255
Rp256
(I1
(I1
tp257
g26
I00
S'\xd5\xff\x7f?'
p258
tp259
b(lp260
g32
atp261
s(g12
g3
(g7
S'\x05\x00\x00\x00'
p262
tp263
Rp264
tp265
(g17
(g18
(I0
tp266
g20
tp267
Rp268
(I1
(I1
tp269
g26
I00
S'\xf8\xff\x7f?'
p270
tp271
b(lp272
g32
atp273
s(g12
g3
(g7
S'\x08\x00\x00\x00'
p274
tp275
Rp276
tp277
(g17
(g18
(I0
tp278
g20
tp279
Rp280
(I1
(I1
tp281
g26
I00
S'\xf5\xff\x7f?'
p282
tp283
b(lp284
g32
atp285
s(g12
g3
(g7
S'\x17\x00\x00\x00'
p286
tp287
Rp288
tp289
(g17
(g18
(I0
tp290
g20
tp291
Rp292
(I1
(I1
tp293
g26
I00
S')\xff\x7f?'
p294
tp295
b(lp296
g32
atp297
s(g12
g3
(g7
S'\x01\x00\x00\x00'
p298
tp299
Rp300
tp301
(g17
(g18
(I0
tp302
g20
tp303
Rp304
(I1
(I1
tp305
g26
I00
S'\xf3\xff\x7f?'
p306
tp307
b(lp308
g32
atp309
s(g12
g3
(g7
S'\x1a\x00\x00\x00'
p310
tp311
Rp312
tp313
(g17
(g18
(I0
tp314
g20
tp315
Rp316
(I1
(I1
tp317
g26
I00
S'\xc4\xff\x7f?'
p318
tp319
b(lp320
g32
atp321
s(g12
g3
(g7
S'\x13\x00\x00\x00'
p322
tp323
Rp324
tp325
(g17
(g18
(I0
tp326
g20
tp327
Rp328
(I1
(I1
tp329
g26
I00
S'\xac\xff\x7f?'
p330
tp331
b(lp332
g32
atp333
s(g12
g3
(g7
S'\r\x00\x00\x00'
p334
tp335
Rp336
tp337
(g17
(g18
(I0
tp338
g20
tp339
Rp340
(I1
(I1
tp341
g26
I00
S'\xc9\xff\x7f?'
p342
tp343
b(lp344
g32
atp345
s(g12
g3
(g7
S'\x06\x00\x00\x00'
p346
tp347
Rp348
tp349
(g17
(g18
(I0
tp350
g20
tp351
Rp352
(I1
(I1
tp353
g26
I00
S'\xf6\xff\x7f?'
p354
tp355
b(lp356
g32
atp357
s(g12
g3
(g7
S'\t\x00\x00\x00'
p358
tp359
Rp360
tp361
(g17
(g18
(I0
tp362
g20
tp363
Rp364
(I1
(I1
tp365
g26
I00
S'\xf6\xff\x7f?'
p366
tp367
b(lp368
g32
atp369
s(g12
g3
(g7
S'\x02\x00\x00\x00'
p370
tp371
Rp372
tp373
(g17
(g18
(I0
tp374
g20
tp375
Rp376
(I1
(I1
tp377
g26
I00
S'\xf2\xff\x7f?'
p378
tp379
b(lp380
g32
atp381
ss.